   1              		.syntax unified
   2              		.cpu cortex-m3
   3              		.fpu softvfp
   4              		.eabi_attribute 20, 1
   5              		.eabi_attribute 21, 1
   6              		.eabi_attribute 23, 3
   7              		.eabi_attribute 24, 1
   8              		.eabi_attribute 25, 1
   9              		.eabi_attribute 26, 1
  10              		.eabi_attribute 30, 2
  11              		.eabi_attribute 34, 1
  12              		.eabi_attribute 18, 4
  13              		.thumb
  14              		.file	"stm32f10x_flash.c"
  15              		.text
  16              	.Ltext0:
  17              		.cfi_sections	.debug_frame
  18              		.section	.text.FLASH_SetLatency,"ax",%progbits
  19              		.align	2
  20              		.global	FLASH_SetLatency
  21              		.thumb
  22              		.thumb_func
  24              	FLASH_SetLatency:
  25              	.LFB0:
  26              		.file 1 "../LIB_HW/Driver/LIB_ST32/stm32f10x_flash.c"
   1:../LIB_HW/Driver/LIB_ST32/stm32f10x_flash.c **** /******************** (C) COPYRIGHT 2008 STMicroelectronics ********************
   2:../LIB_HW/Driver/LIB_ST32/stm32f10x_flash.c **** * File Name          : stm32f10x_flash.c
   3:../LIB_HW/Driver/LIB_ST32/stm32f10x_flash.c **** * Author             : MCD Application Team
   4:../LIB_HW/Driver/LIB_ST32/stm32f10x_flash.c **** * Version            : V2.0.3
   5:../LIB_HW/Driver/LIB_ST32/stm32f10x_flash.c **** * Date               : 09/22/2008
   6:../LIB_HW/Driver/LIB_ST32/stm32f10x_flash.c **** * Description        : This file provides all the FLASH firmware functions.
   7:../LIB_HW/Driver/LIB_ST32/stm32f10x_flash.c **** ********************************************************************************
   8:../LIB_HW/Driver/LIB_ST32/stm32f10x_flash.c **** * THE PRESENT FIRMWARE WHICH IS FOR GUIDANCE ONLY AIMS AT PROVIDING CUSTOMERS
   9:../LIB_HW/Driver/LIB_ST32/stm32f10x_flash.c **** * WITH CODING INFORMATION REGARDING THEIR PRODUCTS IN ORDER FOR THEM TO SAVE TIME.
  10:../LIB_HW/Driver/LIB_ST32/stm32f10x_flash.c **** * AS A RESULT, STMICROELECTRONICS SHALL NOT BE HELD LIABLE FOR ANY DIRECT,
  11:../LIB_HW/Driver/LIB_ST32/stm32f10x_flash.c **** * INDIRECT OR CONSEQUENTIAL DAMAGES WITH RESPECT TO ANY CLAIMS ARISING FROM THE
  12:../LIB_HW/Driver/LIB_ST32/stm32f10x_flash.c **** * CONTENT OF SUCH FIRMWARE AND/OR THE USE MADE BY CUSTOMERS OF THE CODING
  13:../LIB_HW/Driver/LIB_ST32/stm32f10x_flash.c **** * INFORMATION CONTAINED HEREIN IN CONNECTION WITH THEIR PRODUCTS.
  14:../LIB_HW/Driver/LIB_ST32/stm32f10x_flash.c **** *******************************************************************************/
  15:../LIB_HW/Driver/LIB_ST32/stm32f10x_flash.c **** 
  16:../LIB_HW/Driver/LIB_ST32/stm32f10x_flash.c **** /* Includes ------------------------------------------------------------------*/
  17:../LIB_HW/Driver/LIB_ST32/stm32f10x_flash.c **** #include "stm32f10x_flash.h"
  18:../LIB_HW/Driver/LIB_ST32/stm32f10x_flash.c **** 
  19:../LIB_HW/Driver/LIB_ST32/stm32f10x_flash.c **** /* Private typedef -----------------------------------------------------------*/
  20:../LIB_HW/Driver/LIB_ST32/stm32f10x_flash.c **** /* Private define ------------------------------------------------------------*/
  21:../LIB_HW/Driver/LIB_ST32/stm32f10x_flash.c **** /* Flash Access Control Register bits */
  22:../LIB_HW/Driver/LIB_ST32/stm32f10x_flash.c **** #define ACR_LATENCY_Mask         ((u32)0x00000038)
  23:../LIB_HW/Driver/LIB_ST32/stm32f10x_flash.c **** #define ACR_HLFCYA_Mask          ((u32)0xFFFFFFF7)
  24:../LIB_HW/Driver/LIB_ST32/stm32f10x_flash.c **** #define ACR_PRFTBE_Mask          ((u32)0xFFFFFFEF)
  25:../LIB_HW/Driver/LIB_ST32/stm32f10x_flash.c **** 
  26:../LIB_HW/Driver/LIB_ST32/stm32f10x_flash.c **** #ifdef _FLASH_PROG
  27:../LIB_HW/Driver/LIB_ST32/stm32f10x_flash.c **** /* Flash Access Control Register bits */
  28:../LIB_HW/Driver/LIB_ST32/stm32f10x_flash.c **** #define ACR_PRFTBS_Mask          ((u32)0x00000020) 
  29:../LIB_HW/Driver/LIB_ST32/stm32f10x_flash.c **** 
  30:../LIB_HW/Driver/LIB_ST32/stm32f10x_flash.c **** /* Flash Control Register bits */
  31:../LIB_HW/Driver/LIB_ST32/stm32f10x_flash.c **** #define CR_PG_Set                ((u32)0x00000001)
  32:../LIB_HW/Driver/LIB_ST32/stm32f10x_flash.c **** #define CR_PG_Reset              ((u32)0x00001FFE) 
  33:../LIB_HW/Driver/LIB_ST32/stm32f10x_flash.c **** 
  34:../LIB_HW/Driver/LIB_ST32/stm32f10x_flash.c **** #define CR_PER_Set               ((u32)0x00000002)
  35:../LIB_HW/Driver/LIB_ST32/stm32f10x_flash.c **** #define CR_PER_Reset             ((u32)0x00001FFD)
  36:../LIB_HW/Driver/LIB_ST32/stm32f10x_flash.c **** 
  37:../LIB_HW/Driver/LIB_ST32/stm32f10x_flash.c **** #define CR_MER_Set               ((u32)0x00000004)
  38:../LIB_HW/Driver/LIB_ST32/stm32f10x_flash.c **** #define CR_MER_Reset             ((u32)0x00001FFB)
  39:../LIB_HW/Driver/LIB_ST32/stm32f10x_flash.c **** 
  40:../LIB_HW/Driver/LIB_ST32/stm32f10x_flash.c **** #define CR_OPTPG_Set             ((u32)0x00000010)
  41:../LIB_HW/Driver/LIB_ST32/stm32f10x_flash.c **** #define CR_OPTPG_Reset           ((u32)0x00001FEF)
  42:../LIB_HW/Driver/LIB_ST32/stm32f10x_flash.c **** 
  43:../LIB_HW/Driver/LIB_ST32/stm32f10x_flash.c **** #define CR_OPTER_Set             ((u32)0x00000020)
  44:../LIB_HW/Driver/LIB_ST32/stm32f10x_flash.c **** #define CR_OPTER_Reset           ((u32)0x00001FDF)
  45:../LIB_HW/Driver/LIB_ST32/stm32f10x_flash.c **** 
  46:../LIB_HW/Driver/LIB_ST32/stm32f10x_flash.c **** #define CR_STRT_Set              ((u32)0x00000040)
  47:../LIB_HW/Driver/LIB_ST32/stm32f10x_flash.c **** 							 
  48:../LIB_HW/Driver/LIB_ST32/stm32f10x_flash.c **** #define CR_LOCK_Set              ((u32)0x00000080)
  49:../LIB_HW/Driver/LIB_ST32/stm32f10x_flash.c **** 
  50:../LIB_HW/Driver/LIB_ST32/stm32f10x_flash.c **** /* FLASH Mask */
  51:../LIB_HW/Driver/LIB_ST32/stm32f10x_flash.c **** #define RDPRT_Mask               ((u32)0x00000002)
  52:../LIB_HW/Driver/LIB_ST32/stm32f10x_flash.c **** #define WRP0_Mask                ((u32)0x000000FF)
  53:../LIB_HW/Driver/LIB_ST32/stm32f10x_flash.c **** #define WRP1_Mask                ((u32)0x0000FF00)
  54:../LIB_HW/Driver/LIB_ST32/stm32f10x_flash.c **** #define WRP2_Mask                ((u32)0x00FF0000)
  55:../LIB_HW/Driver/LIB_ST32/stm32f10x_flash.c **** #define WRP3_Mask                ((u32)0xFF000000)
  56:../LIB_HW/Driver/LIB_ST32/stm32f10x_flash.c **** 
  57:../LIB_HW/Driver/LIB_ST32/stm32f10x_flash.c **** /* FLASH Keys */
  58:../LIB_HW/Driver/LIB_ST32/stm32f10x_flash.c **** #define RDP_Key                  ((u16)0x00A5)
  59:../LIB_HW/Driver/LIB_ST32/stm32f10x_flash.c **** #define FLASH_KEY1               ((u32)0x45670123)
  60:../LIB_HW/Driver/LIB_ST32/stm32f10x_flash.c **** #define FLASH_KEY2               ((u32)0xCDEF89AB)
  61:../LIB_HW/Driver/LIB_ST32/stm32f10x_flash.c **** 
  62:../LIB_HW/Driver/LIB_ST32/stm32f10x_flash.c **** /* Delay definition */   
  63:../LIB_HW/Driver/LIB_ST32/stm32f10x_flash.c **** #define EraseTimeout             ((u32)0x00000FFF)
  64:../LIB_HW/Driver/LIB_ST32/stm32f10x_flash.c **** #define ProgramTimeout           ((u32)0x0000000F)
  65:../LIB_HW/Driver/LIB_ST32/stm32f10x_flash.c **** #endif
  66:../LIB_HW/Driver/LIB_ST32/stm32f10x_flash.c **** 
  67:../LIB_HW/Driver/LIB_ST32/stm32f10x_flash.c **** /* Private macro -------------------------------------------------------------*/
  68:../LIB_HW/Driver/LIB_ST32/stm32f10x_flash.c **** /* Private variables ---------------------------------------------------------*/
  69:../LIB_HW/Driver/LIB_ST32/stm32f10x_flash.c **** /* Private function prototypes -----------------------------------------------*/
  70:../LIB_HW/Driver/LIB_ST32/stm32f10x_flash.c **** #ifdef _FLASH_PROG
  71:../LIB_HW/Driver/LIB_ST32/stm32f10x_flash.c **** static void delay(void);
  72:../LIB_HW/Driver/LIB_ST32/stm32f10x_flash.c **** #endif
  73:../LIB_HW/Driver/LIB_ST32/stm32f10x_flash.c **** 
  74:../LIB_HW/Driver/LIB_ST32/stm32f10x_flash.c **** /* Private functions ---------------------------------------------------------*/
  75:../LIB_HW/Driver/LIB_ST32/stm32f10x_flash.c **** /*******************************************************************************
  76:../LIB_HW/Driver/LIB_ST32/stm32f10x_flash.c **** * Function Name  : FLASH_SetLatency
  77:../LIB_HW/Driver/LIB_ST32/stm32f10x_flash.c **** * Description    : Sets the code latency value.
  78:../LIB_HW/Driver/LIB_ST32/stm32f10x_flash.c **** * Input          : - FLASH_Latency: specifies the FLASH Latency value.
  79:../LIB_HW/Driver/LIB_ST32/stm32f10x_flash.c **** *                    This parameter can be one of the following values:
  80:../LIB_HW/Driver/LIB_ST32/stm32f10x_flash.c **** *                       - FLASH_Latency_0: FLASH Zero Latency cycle
  81:../LIB_HW/Driver/LIB_ST32/stm32f10x_flash.c **** *                       - FLASH_Latency_1: FLASH One Latency cycle
  82:../LIB_HW/Driver/LIB_ST32/stm32f10x_flash.c **** *                       - FLASH_Latency_2: FLASH Two Latency cycles
  83:../LIB_HW/Driver/LIB_ST32/stm32f10x_flash.c **** * Output         : None
  84:../LIB_HW/Driver/LIB_ST32/stm32f10x_flash.c **** * Return         : None
  85:../LIB_HW/Driver/LIB_ST32/stm32f10x_flash.c **** *******************************************************************************/
  86:../LIB_HW/Driver/LIB_ST32/stm32f10x_flash.c **** void FLASH_SetLatency(u32 FLASH_Latency)
  87:../LIB_HW/Driver/LIB_ST32/stm32f10x_flash.c **** {
  27              		.loc 1 87 0
  28              		.cfi_startproc
  29              		@ args = 0, pretend = 0, frame = 0
  30              		@ frame_needed = 0, uses_anonymous_args = 0
  31              		@ link register save eliminated.
  32              	.LVL0:
  88:../LIB_HW/Driver/LIB_ST32/stm32f10x_flash.c ****   /* Check the parameters */
  89:../LIB_HW/Driver/LIB_ST32/stm32f10x_flash.c ****   assert_param(IS_FLASH_LATENCY(FLASH_Latency));
  90:../LIB_HW/Driver/LIB_ST32/stm32f10x_flash.c ****   
  91:../LIB_HW/Driver/LIB_ST32/stm32f10x_flash.c ****   /* Sets the Latency value */
  92:../LIB_HW/Driver/LIB_ST32/stm32f10x_flash.c ****   FLASH->ACR &= ACR_LATENCY_Mask;
  33              		.loc 1 92 0
  34 0000 4FF40053 		mov	r3, #8192
  35 0004 C4F20203 		movt	r3, 16386
  36 0008 1A68     		ldr	r2, [r3, #0]
  37 000a 02F03802 		and	r2, r2, #56
  38 000e 1A60     		str	r2, [r3, #0]
  93:../LIB_HW/Driver/LIB_ST32/stm32f10x_flash.c ****   FLASH->ACR |= FLASH_Latency;
  39              		.loc 1 93 0
  40 0010 1A68     		ldr	r2, [r3, #0]
  41 0012 1043     		orrs	r0, r0, r2
  42              	.LVL1:
  43 0014 1860     		str	r0, [r3, #0]
  44 0016 7047     		bx	lr
  45              		.cfi_endproc
  46              	.LFE0:
  48              		.section	.text.FLASH_HalfCycleAccessCmd,"ax",%progbits
  49              		.align	2
  50              		.global	FLASH_HalfCycleAccessCmd
  51              		.thumb
  52              		.thumb_func
  54              	FLASH_HalfCycleAccessCmd:
  55              	.LFB1:
  94:../LIB_HW/Driver/LIB_ST32/stm32f10x_flash.c **** }
  95:../LIB_HW/Driver/LIB_ST32/stm32f10x_flash.c **** 
  96:../LIB_HW/Driver/LIB_ST32/stm32f10x_flash.c **** /*******************************************************************************
  97:../LIB_HW/Driver/LIB_ST32/stm32f10x_flash.c **** * Function Name  : FLASH_HalfCycleAccessCmd
  98:../LIB_HW/Driver/LIB_ST32/stm32f10x_flash.c **** * Description    : Enables or disables the Half cycle flash access.
  99:../LIB_HW/Driver/LIB_ST32/stm32f10x_flash.c **** * Input          : - FLASH_HalfCycle: specifies the FLASH Half cycle Access mode.
 100:../LIB_HW/Driver/LIB_ST32/stm32f10x_flash.c **** *                    This parameter can be one of the following values:
 101:../LIB_HW/Driver/LIB_ST32/stm32f10x_flash.c **** *                       - FLASH_HalfCycleAccess_Enable: FLASH Half Cycle Enable
 102:../LIB_HW/Driver/LIB_ST32/stm32f10x_flash.c **** *                       - FLASH_HalfCycleAccess_Disable: FLASH Half Cycle Disable
 103:../LIB_HW/Driver/LIB_ST32/stm32f10x_flash.c **** * Output         : None
 104:../LIB_HW/Driver/LIB_ST32/stm32f10x_flash.c **** * Return         : None
 105:../LIB_HW/Driver/LIB_ST32/stm32f10x_flash.c **** *******************************************************************************/
 106:../LIB_HW/Driver/LIB_ST32/stm32f10x_flash.c **** void FLASH_HalfCycleAccessCmd(u32 FLASH_HalfCycleAccess)
 107:../LIB_HW/Driver/LIB_ST32/stm32f10x_flash.c **** {
  56              		.loc 1 107 0
  57              		.cfi_startproc
  58              		@ args = 0, pretend = 0, frame = 0
  59              		@ frame_needed = 0, uses_anonymous_args = 0
  60              		@ link register save eliminated.
  61              	.LVL2:
 108:../LIB_HW/Driver/LIB_ST32/stm32f10x_flash.c ****   /* Check the parameters */
 109:../LIB_HW/Driver/LIB_ST32/stm32f10x_flash.c ****   assert_param(IS_FLASH_HALFCYCLEACCESS_STATE(FLASH_HalfCycleAccess));
 110:../LIB_HW/Driver/LIB_ST32/stm32f10x_flash.c ****   
 111:../LIB_HW/Driver/LIB_ST32/stm32f10x_flash.c ****   /* Enable or disable the Half cycle access */
 112:../LIB_HW/Driver/LIB_ST32/stm32f10x_flash.c ****   FLASH->ACR &= ACR_HLFCYA_Mask;
  62              		.loc 1 112 0
  63 0000 4FF40053 		mov	r3, #8192
  64 0004 C4F20203 		movt	r3, 16386
  65 0008 1A68     		ldr	r2, [r3, #0]
  66 000a 22F00802 		bic	r2, r2, #8
  67 000e 1A60     		str	r2, [r3, #0]
 113:../LIB_HW/Driver/LIB_ST32/stm32f10x_flash.c ****   FLASH->ACR |= FLASH_HalfCycleAccess;
  68              		.loc 1 113 0
  69 0010 1A68     		ldr	r2, [r3, #0]
  70 0012 1043     		orrs	r0, r0, r2
  71              	.LVL3:
  72 0014 1860     		str	r0, [r3, #0]
  73 0016 7047     		bx	lr
  74              		.cfi_endproc
  75              	.LFE1:
  77              		.section	.text.FLASH_PrefetchBufferCmd,"ax",%progbits
  78              		.align	2
  79              		.global	FLASH_PrefetchBufferCmd
  80              		.thumb
  81              		.thumb_func
  83              	FLASH_PrefetchBufferCmd:
  84              	.LFB2:
 114:../LIB_HW/Driver/LIB_ST32/stm32f10x_flash.c **** }
 115:../LIB_HW/Driver/LIB_ST32/stm32f10x_flash.c **** 
 116:../LIB_HW/Driver/LIB_ST32/stm32f10x_flash.c **** /*******************************************************************************
 117:../LIB_HW/Driver/LIB_ST32/stm32f10x_flash.c **** * Function Name  : FLASH_PrefetchBufferCmd
 118:../LIB_HW/Driver/LIB_ST32/stm32f10x_flash.c **** * Description    : Enables or disables the Prefetch Buffer.
 119:../LIB_HW/Driver/LIB_ST32/stm32f10x_flash.c **** * Input          : - FLASH_PrefetchBuffer: specifies the Prefetch buffer status.
 120:../LIB_HW/Driver/LIB_ST32/stm32f10x_flash.c **** *                    This parameter can be one of the following values:
 121:../LIB_HW/Driver/LIB_ST32/stm32f10x_flash.c **** *                       - FLASH_PrefetchBuffer_Enable: FLASH Prefetch Buffer Enable
 122:../LIB_HW/Driver/LIB_ST32/stm32f10x_flash.c **** *                       - FLASH_PrefetchBuffer_Disable: FLASH Prefetch Buffer Disable
 123:../LIB_HW/Driver/LIB_ST32/stm32f10x_flash.c **** * Output         : None
 124:../LIB_HW/Driver/LIB_ST32/stm32f10x_flash.c **** * Return         : None
 125:../LIB_HW/Driver/LIB_ST32/stm32f10x_flash.c **** *******************************************************************************/
 126:../LIB_HW/Driver/LIB_ST32/stm32f10x_flash.c **** void FLASH_PrefetchBufferCmd(u32 FLASH_PrefetchBuffer)
 127:../LIB_HW/Driver/LIB_ST32/stm32f10x_flash.c **** {
  85              		.loc 1 127 0
  86              		.cfi_startproc
  87              		@ args = 0, pretend = 0, frame = 0
  88              		@ frame_needed = 0, uses_anonymous_args = 0
  89              		@ link register save eliminated.
  90              	.LVL4:
 128:../LIB_HW/Driver/LIB_ST32/stm32f10x_flash.c ****   /* Check the parameters */
 129:../LIB_HW/Driver/LIB_ST32/stm32f10x_flash.c ****   assert_param(IS_FLASH_PREFETCHBUFFER_STATE(FLASH_PrefetchBuffer));
 130:../LIB_HW/Driver/LIB_ST32/stm32f10x_flash.c ****   
 131:../LIB_HW/Driver/LIB_ST32/stm32f10x_flash.c ****   /* Enable or disable the Prefetch Buffer */
 132:../LIB_HW/Driver/LIB_ST32/stm32f10x_flash.c ****   FLASH->ACR &= ACR_PRFTBE_Mask;
  91              		.loc 1 132 0
  92 0000 4FF40053 		mov	r3, #8192
  93 0004 C4F20203 		movt	r3, 16386
  94 0008 1A68     		ldr	r2, [r3, #0]
  95 000a 22F01002 		bic	r2, r2, #16
  96 000e 1A60     		str	r2, [r3, #0]
 133:../LIB_HW/Driver/LIB_ST32/stm32f10x_flash.c ****   FLASH->ACR |= FLASH_PrefetchBuffer;
  97              		.loc 1 133 0
  98 0010 1A68     		ldr	r2, [r3, #0]
  99 0012 1043     		orrs	r0, r0, r2
 100              	.LVL5:
 101 0014 1860     		str	r0, [r3, #0]
 102 0016 7047     		bx	lr
 103              		.cfi_endproc
 104              	.LFE2:
 106              		.section	.text.FLASH_Unlock,"ax",%progbits
 107              		.align	2
 108              		.global	FLASH_Unlock
 109              		.thumb
 110              		.thumb_func
 112              	FLASH_Unlock:
 113              	.LFB3:
 134:../LIB_HW/Driver/LIB_ST32/stm32f10x_flash.c **** }
 135:../LIB_HW/Driver/LIB_ST32/stm32f10x_flash.c **** 
 136:../LIB_HW/Driver/LIB_ST32/stm32f10x_flash.c **** #ifdef _FLASH_PROG
 137:../LIB_HW/Driver/LIB_ST32/stm32f10x_flash.c **** /*******************************************************************************
 138:../LIB_HW/Driver/LIB_ST32/stm32f10x_flash.c **** * Function Name  : FLASH_Unlock
 139:../LIB_HW/Driver/LIB_ST32/stm32f10x_flash.c **** * Description    : Unlocks the FLASH Program Erase Controller.
 140:../LIB_HW/Driver/LIB_ST32/stm32f10x_flash.c **** * Input          : None
 141:../LIB_HW/Driver/LIB_ST32/stm32f10x_flash.c **** * Output         : None
 142:../LIB_HW/Driver/LIB_ST32/stm32f10x_flash.c **** * Return         : None
 143:../LIB_HW/Driver/LIB_ST32/stm32f10x_flash.c **** *******************************************************************************/
 144:../LIB_HW/Driver/LIB_ST32/stm32f10x_flash.c **** void FLASH_Unlock(void)
 145:../LIB_HW/Driver/LIB_ST32/stm32f10x_flash.c **** {
 114              		.loc 1 145 0
 115              		.cfi_startproc
 116              		@ args = 0, pretend = 0, frame = 0
 117              		@ frame_needed = 0, uses_anonymous_args = 0
 118              		@ link register save eliminated.
 146:../LIB_HW/Driver/LIB_ST32/stm32f10x_flash.c ****   /* Authorize the FPEC Access */
 147:../LIB_HW/Driver/LIB_ST32/stm32f10x_flash.c ****   FLASH->KEYR = FLASH_KEY1;
 119              		.loc 1 147 0
 120 0000 4FF40053 		mov	r3, #8192
 121 0004 40F22311 		movw	r1, #291
 148:../LIB_HW/Driver/LIB_ST32/stm32f10x_flash.c ****   FLASH->KEYR = FLASH_KEY2;
 122              		.loc 1 148 0
 123 0008 48F6AB12 		movw	r2, #35243
 147:../LIB_HW/Driver/LIB_ST32/stm32f10x_flash.c ****   FLASH->KEYR = FLASH_KEY1;
 124              		.loc 1 147 0
 125 000c C4F20203 		movt	r3, 16386
 126 0010 C4F26751 		movt	r1, 17767
 127              		.loc 1 148 0
 128 0014 CCF6EF52 		movt	r2, 52719
 147:../LIB_HW/Driver/LIB_ST32/stm32f10x_flash.c ****   FLASH->KEYR = FLASH_KEY1;
 129              		.loc 1 147 0
 130 0018 5960     		str	r1, [r3, #4]
 131              		.loc 1 148 0
 132 001a 5A60     		str	r2, [r3, #4]
 133 001c 7047     		bx	lr
 134              		.cfi_endproc
 135              	.LFE3:
 137 001e 00BF     		.section	.text.FLASH_Lock,"ax",%progbits
 138              		.align	2
 139              		.global	FLASH_Lock
 140              		.thumb
 141              		.thumb_func
 143              	FLASH_Lock:
 144              	.LFB4:
 149:../LIB_HW/Driver/LIB_ST32/stm32f10x_flash.c **** }
 150:../LIB_HW/Driver/LIB_ST32/stm32f10x_flash.c **** 
 151:../LIB_HW/Driver/LIB_ST32/stm32f10x_flash.c **** /*******************************************************************************
 152:../LIB_HW/Driver/LIB_ST32/stm32f10x_flash.c **** * Function Name  : FLASH_Lock
 153:../LIB_HW/Driver/LIB_ST32/stm32f10x_flash.c **** * Description    : Locks the FLASH Program Erase Controller.
 154:../LIB_HW/Driver/LIB_ST32/stm32f10x_flash.c **** * Input          : None
 155:../LIB_HW/Driver/LIB_ST32/stm32f10x_flash.c **** * Output         : None
 156:../LIB_HW/Driver/LIB_ST32/stm32f10x_flash.c **** * Return         : None
 157:../LIB_HW/Driver/LIB_ST32/stm32f10x_flash.c **** *******************************************************************************/
 158:../LIB_HW/Driver/LIB_ST32/stm32f10x_flash.c **** void FLASH_Lock(void)
 159:../LIB_HW/Driver/LIB_ST32/stm32f10x_flash.c **** {
 145              		.loc 1 159 0
 146              		.cfi_startproc
 147              		@ args = 0, pretend = 0, frame = 0
 148              		@ frame_needed = 0, uses_anonymous_args = 0
 149              		@ link register save eliminated.
 160:../LIB_HW/Driver/LIB_ST32/stm32f10x_flash.c ****   /* Set the Lock Bit to lock the FPEC and the FCR */
 161:../LIB_HW/Driver/LIB_ST32/stm32f10x_flash.c ****   FLASH->CR |= CR_LOCK_Set;
 150              		.loc 1 161 0
 151 0000 4FF40053 		mov	r3, #8192
 152 0004 C4F20203 		movt	r3, 16386
 153 0008 1A69     		ldr	r2, [r3, #16]
 154 000a 42F08002 		orr	r2, r2, #128
 155 000e 1A61     		str	r2, [r3, #16]
 156 0010 7047     		bx	lr
 157              		.cfi_endproc
 158              	.LFE4:
 160 0012 00BF     		.section	.text.FLASH_GetUserOptionByte,"ax",%progbits
 161              		.align	2
 162              		.global	FLASH_GetUserOptionByte
 163              		.thumb
 164              		.thumb_func
 166              	FLASH_GetUserOptionByte:
 167              	.LFB14:
 162:../LIB_HW/Driver/LIB_ST32/stm32f10x_flash.c **** }
 163:../LIB_HW/Driver/LIB_ST32/stm32f10x_flash.c **** 
 164:../LIB_HW/Driver/LIB_ST32/stm32f10x_flash.c **** /*******************************************************************************
 165:../LIB_HW/Driver/LIB_ST32/stm32f10x_flash.c **** * Function Name  : FLASH_ErasePage
 166:../LIB_HW/Driver/LIB_ST32/stm32f10x_flash.c **** * Description    : Erases a specified FLASH page.
 167:../LIB_HW/Driver/LIB_ST32/stm32f10x_flash.c **** * Input          : - Page_Address: The page address to be erased.
 168:../LIB_HW/Driver/LIB_ST32/stm32f10x_flash.c **** * Output         : None
 169:../LIB_HW/Driver/LIB_ST32/stm32f10x_flash.c **** * Return         : FLASH Status: The returned value can be: FLASH_BUSY, 
 170:../LIB_HW/Driver/LIB_ST32/stm32f10x_flash.c **** *                  FLASH_ERROR_PG, FLASH_ERROR_WRP, FLASH_COMPLETE or 
 171:../LIB_HW/Driver/LIB_ST32/stm32f10x_flash.c **** *                  FLASH_TIMEOUT.
 172:../LIB_HW/Driver/LIB_ST32/stm32f10x_flash.c **** *******************************************************************************/
 173:../LIB_HW/Driver/LIB_ST32/stm32f10x_flash.c **** FLASH_Status FLASH_ErasePage(u32 Page_Address)
 174:../LIB_HW/Driver/LIB_ST32/stm32f10x_flash.c **** {
 175:../LIB_HW/Driver/LIB_ST32/stm32f10x_flash.c ****   FLASH_Status status = FLASH_COMPLETE;
 176:../LIB_HW/Driver/LIB_ST32/stm32f10x_flash.c **** 
 177:../LIB_HW/Driver/LIB_ST32/stm32f10x_flash.c ****   /* Check the parameters */
 178:../LIB_HW/Driver/LIB_ST32/stm32f10x_flash.c ****   assert_param(IS_FLASH_ADDRESS(Page_Address));
 179:../LIB_HW/Driver/LIB_ST32/stm32f10x_flash.c **** 
 180:../LIB_HW/Driver/LIB_ST32/stm32f10x_flash.c ****   /* Wait for last operation to be completed */
 181:../LIB_HW/Driver/LIB_ST32/stm32f10x_flash.c ****   status = FLASH_WaitForLastOperation(EraseTimeout);
 182:../LIB_HW/Driver/LIB_ST32/stm32f10x_flash.c ****   
 183:../LIB_HW/Driver/LIB_ST32/stm32f10x_flash.c ****   if(status == FLASH_COMPLETE)
 184:../LIB_HW/Driver/LIB_ST32/stm32f10x_flash.c ****   { 
 185:../LIB_HW/Driver/LIB_ST32/stm32f10x_flash.c ****     /* if the previous operation is completed, proceed to erase the page */
 186:../LIB_HW/Driver/LIB_ST32/stm32f10x_flash.c ****     FLASH->CR|= CR_PER_Set;
 187:../LIB_HW/Driver/LIB_ST32/stm32f10x_flash.c ****     FLASH->AR = Page_Address; 
 188:../LIB_HW/Driver/LIB_ST32/stm32f10x_flash.c ****     FLASH->CR|= CR_STRT_Set;
 189:../LIB_HW/Driver/LIB_ST32/stm32f10x_flash.c ****     
 190:../LIB_HW/Driver/LIB_ST32/stm32f10x_flash.c ****     /* Wait for last operation to be completed */
 191:../LIB_HW/Driver/LIB_ST32/stm32f10x_flash.c ****     status = FLASH_WaitForLastOperation(EraseTimeout);
 192:../LIB_HW/Driver/LIB_ST32/stm32f10x_flash.c **** 
 193:../LIB_HW/Driver/LIB_ST32/stm32f10x_flash.c ****     if(status != FLASH_BUSY)
 194:../LIB_HW/Driver/LIB_ST32/stm32f10x_flash.c ****     {
 195:../LIB_HW/Driver/LIB_ST32/stm32f10x_flash.c ****       /* if the erase operation is completed, disable the PER Bit */
 196:../LIB_HW/Driver/LIB_ST32/stm32f10x_flash.c ****       FLASH->CR &= CR_PER_Reset;
 197:../LIB_HW/Driver/LIB_ST32/stm32f10x_flash.c ****     }
 198:../LIB_HW/Driver/LIB_ST32/stm32f10x_flash.c ****   }
 199:../LIB_HW/Driver/LIB_ST32/stm32f10x_flash.c ****   /* Return the Erase Status */
 200:../LIB_HW/Driver/LIB_ST32/stm32f10x_flash.c ****   return status;
 201:../LIB_HW/Driver/LIB_ST32/stm32f10x_flash.c **** }
 202:../LIB_HW/Driver/LIB_ST32/stm32f10x_flash.c **** 
 203:../LIB_HW/Driver/LIB_ST32/stm32f10x_flash.c **** /*******************************************************************************
 204:../LIB_HW/Driver/LIB_ST32/stm32f10x_flash.c **** * Function Name  : FLASH_EraseAllPages
 205:../LIB_HW/Driver/LIB_ST32/stm32f10x_flash.c **** * Description    : Erases all FLASH pages.
 206:../LIB_HW/Driver/LIB_ST32/stm32f10x_flash.c **** * Input          : None
 207:../LIB_HW/Driver/LIB_ST32/stm32f10x_flash.c **** * Output         : None
 208:../LIB_HW/Driver/LIB_ST32/stm32f10x_flash.c **** * Return         : FLASH Status: The returned value can be: FLASH_BUSY, 
 209:../LIB_HW/Driver/LIB_ST32/stm32f10x_flash.c **** *                  FLASH_ERROR_PG, FLASH_ERROR_WRP, FLASH_COMPLETE or 
 210:../LIB_HW/Driver/LIB_ST32/stm32f10x_flash.c **** *                  FLASH_TIMEOUT.
 211:../LIB_HW/Driver/LIB_ST32/stm32f10x_flash.c **** *******************************************************************************/
 212:../LIB_HW/Driver/LIB_ST32/stm32f10x_flash.c **** FLASH_Status FLASH_EraseAllPages(void)
 213:../LIB_HW/Driver/LIB_ST32/stm32f10x_flash.c **** {
 214:../LIB_HW/Driver/LIB_ST32/stm32f10x_flash.c ****   FLASH_Status status = FLASH_COMPLETE;
 215:../LIB_HW/Driver/LIB_ST32/stm32f10x_flash.c **** 
 216:../LIB_HW/Driver/LIB_ST32/stm32f10x_flash.c ****   /* Wait for last operation to be completed */
 217:../LIB_HW/Driver/LIB_ST32/stm32f10x_flash.c ****   status = FLASH_WaitForLastOperation(EraseTimeout);
 218:../LIB_HW/Driver/LIB_ST32/stm32f10x_flash.c ****   
 219:../LIB_HW/Driver/LIB_ST32/stm32f10x_flash.c ****   if(status == FLASH_COMPLETE)
 220:../LIB_HW/Driver/LIB_ST32/stm32f10x_flash.c ****   {
 221:../LIB_HW/Driver/LIB_ST32/stm32f10x_flash.c ****     /* if the previous operation is completed, proceed to erase all pages */
 222:../LIB_HW/Driver/LIB_ST32/stm32f10x_flash.c ****      FLASH->CR |= CR_MER_Set;
 223:../LIB_HW/Driver/LIB_ST32/stm32f10x_flash.c ****      FLASH->CR |= CR_STRT_Set;
 224:../LIB_HW/Driver/LIB_ST32/stm32f10x_flash.c ****     
 225:../LIB_HW/Driver/LIB_ST32/stm32f10x_flash.c ****     /* Wait for last operation to be completed */
 226:../LIB_HW/Driver/LIB_ST32/stm32f10x_flash.c ****     status = FLASH_WaitForLastOperation(EraseTimeout);
 227:../LIB_HW/Driver/LIB_ST32/stm32f10x_flash.c **** 
 228:../LIB_HW/Driver/LIB_ST32/stm32f10x_flash.c ****     if(status != FLASH_BUSY)
 229:../LIB_HW/Driver/LIB_ST32/stm32f10x_flash.c ****     {
 230:../LIB_HW/Driver/LIB_ST32/stm32f10x_flash.c ****       /* if the erase operation is completed, disable the MER Bit */
 231:../LIB_HW/Driver/LIB_ST32/stm32f10x_flash.c ****       FLASH->CR &= CR_MER_Reset;
 232:../LIB_HW/Driver/LIB_ST32/stm32f10x_flash.c ****     }
 233:../LIB_HW/Driver/LIB_ST32/stm32f10x_flash.c ****   }	   
 234:../LIB_HW/Driver/LIB_ST32/stm32f10x_flash.c ****   /* Return the Erase Status */
 235:../LIB_HW/Driver/LIB_ST32/stm32f10x_flash.c ****   return status;
 236:../LIB_HW/Driver/LIB_ST32/stm32f10x_flash.c **** }
 237:../LIB_HW/Driver/LIB_ST32/stm32f10x_flash.c **** 
 238:../LIB_HW/Driver/LIB_ST32/stm32f10x_flash.c **** /*******************************************************************************
 239:../LIB_HW/Driver/LIB_ST32/stm32f10x_flash.c **** * Function Name  : FLASH_EraseOptionBytes
 240:../LIB_HW/Driver/LIB_ST32/stm32f10x_flash.c **** * Description    : Erases the FLASH option bytes.
 241:../LIB_HW/Driver/LIB_ST32/stm32f10x_flash.c **** * Input          : None
 242:../LIB_HW/Driver/LIB_ST32/stm32f10x_flash.c **** * Output         : None
 243:../LIB_HW/Driver/LIB_ST32/stm32f10x_flash.c **** * Return         : FLASH Status: The returned value can be: FLASH_BUSY, 
 244:../LIB_HW/Driver/LIB_ST32/stm32f10x_flash.c **** *                  FLASH_ERROR_PG, FLASH_ERROR_WRP, FLASH_COMPLETE or 
 245:../LIB_HW/Driver/LIB_ST32/stm32f10x_flash.c **** *                  FLASH_TIMEOUT.
 246:../LIB_HW/Driver/LIB_ST32/stm32f10x_flash.c **** *******************************************************************************/
 247:../LIB_HW/Driver/LIB_ST32/stm32f10x_flash.c **** FLASH_Status FLASH_EraseOptionBytes(void)
 248:../LIB_HW/Driver/LIB_ST32/stm32f10x_flash.c **** {
 249:../LIB_HW/Driver/LIB_ST32/stm32f10x_flash.c ****   FLASH_Status status = FLASH_COMPLETE;
 250:../LIB_HW/Driver/LIB_ST32/stm32f10x_flash.c ****   
 251:../LIB_HW/Driver/LIB_ST32/stm32f10x_flash.c ****   /* Wait for last operation to be completed */
 252:../LIB_HW/Driver/LIB_ST32/stm32f10x_flash.c ****   status = FLASH_WaitForLastOperation(EraseTimeout);
 253:../LIB_HW/Driver/LIB_ST32/stm32f10x_flash.c **** 
 254:../LIB_HW/Driver/LIB_ST32/stm32f10x_flash.c ****   if(status == FLASH_COMPLETE)
 255:../LIB_HW/Driver/LIB_ST32/stm32f10x_flash.c ****   {
 256:../LIB_HW/Driver/LIB_ST32/stm32f10x_flash.c ****     /* Authorize the small information block programming */
 257:../LIB_HW/Driver/LIB_ST32/stm32f10x_flash.c ****     FLASH->OPTKEYR = FLASH_KEY1;
 258:../LIB_HW/Driver/LIB_ST32/stm32f10x_flash.c ****     FLASH->OPTKEYR = FLASH_KEY2;
 259:../LIB_HW/Driver/LIB_ST32/stm32f10x_flash.c ****     
 260:../LIB_HW/Driver/LIB_ST32/stm32f10x_flash.c ****     /* if the previous operation is completed, proceed to erase the option bytes */
 261:../LIB_HW/Driver/LIB_ST32/stm32f10x_flash.c ****     FLASH->CR |= CR_OPTER_Set;
 262:../LIB_HW/Driver/LIB_ST32/stm32f10x_flash.c ****     FLASH->CR |= CR_STRT_Set;
 263:../LIB_HW/Driver/LIB_ST32/stm32f10x_flash.c **** 
 264:../LIB_HW/Driver/LIB_ST32/stm32f10x_flash.c ****     /* Wait for last operation to be completed */
 265:../LIB_HW/Driver/LIB_ST32/stm32f10x_flash.c ****     status = FLASH_WaitForLastOperation(EraseTimeout);
 266:../LIB_HW/Driver/LIB_ST32/stm32f10x_flash.c ****     
 267:../LIB_HW/Driver/LIB_ST32/stm32f10x_flash.c ****     if(status == FLASH_COMPLETE)
 268:../LIB_HW/Driver/LIB_ST32/stm32f10x_flash.c ****     {
 269:../LIB_HW/Driver/LIB_ST32/stm32f10x_flash.c ****       /* if the erase operation is completed, disable the OPTER Bit */
 270:../LIB_HW/Driver/LIB_ST32/stm32f10x_flash.c ****       FLASH->CR &= CR_OPTER_Reset;
 271:../LIB_HW/Driver/LIB_ST32/stm32f10x_flash.c ****        
 272:../LIB_HW/Driver/LIB_ST32/stm32f10x_flash.c ****       /* Enable the Option Bytes Programming operation */
 273:../LIB_HW/Driver/LIB_ST32/stm32f10x_flash.c ****       FLASH->CR |= CR_OPTPG_Set;
 274:../LIB_HW/Driver/LIB_ST32/stm32f10x_flash.c **** 
 275:../LIB_HW/Driver/LIB_ST32/stm32f10x_flash.c ****       /* Enable the readout access */
 276:../LIB_HW/Driver/LIB_ST32/stm32f10x_flash.c ****       OB->RDP= RDP_Key; 
 277:../LIB_HW/Driver/LIB_ST32/stm32f10x_flash.c **** 
 278:../LIB_HW/Driver/LIB_ST32/stm32f10x_flash.c ****       /* Wait for last operation to be completed */
 279:../LIB_HW/Driver/LIB_ST32/stm32f10x_flash.c ****       status = FLASH_WaitForLastOperation(ProgramTimeout);
 280:../LIB_HW/Driver/LIB_ST32/stm32f10x_flash.c ****  
 281:../LIB_HW/Driver/LIB_ST32/stm32f10x_flash.c ****       if(status != FLASH_BUSY)
 282:../LIB_HW/Driver/LIB_ST32/stm32f10x_flash.c ****       {
 283:../LIB_HW/Driver/LIB_ST32/stm32f10x_flash.c ****         /* if the program operation is completed, disable the OPTPG Bit */
 284:../LIB_HW/Driver/LIB_ST32/stm32f10x_flash.c ****         FLASH->CR &= CR_OPTPG_Reset;
 285:../LIB_HW/Driver/LIB_ST32/stm32f10x_flash.c ****       }
 286:../LIB_HW/Driver/LIB_ST32/stm32f10x_flash.c ****     }
 287:../LIB_HW/Driver/LIB_ST32/stm32f10x_flash.c ****     else
 288:../LIB_HW/Driver/LIB_ST32/stm32f10x_flash.c ****     {
 289:../LIB_HW/Driver/LIB_ST32/stm32f10x_flash.c ****       if (status != FLASH_BUSY)
 290:../LIB_HW/Driver/LIB_ST32/stm32f10x_flash.c ****       {
 291:../LIB_HW/Driver/LIB_ST32/stm32f10x_flash.c ****         /* Disable the OPTPG Bit */
 292:../LIB_HW/Driver/LIB_ST32/stm32f10x_flash.c ****         FLASH->CR &= CR_OPTPG_Reset;
 293:../LIB_HW/Driver/LIB_ST32/stm32f10x_flash.c ****       }
 294:../LIB_HW/Driver/LIB_ST32/stm32f10x_flash.c ****     }  
 295:../LIB_HW/Driver/LIB_ST32/stm32f10x_flash.c ****   }
 296:../LIB_HW/Driver/LIB_ST32/stm32f10x_flash.c ****   /* Return the erase status */
 297:../LIB_HW/Driver/LIB_ST32/stm32f10x_flash.c ****   return status;
 298:../LIB_HW/Driver/LIB_ST32/stm32f10x_flash.c **** }
 299:../LIB_HW/Driver/LIB_ST32/stm32f10x_flash.c **** 
 300:../LIB_HW/Driver/LIB_ST32/stm32f10x_flash.c **** /*******************************************************************************
 301:../LIB_HW/Driver/LIB_ST32/stm32f10x_flash.c **** * Function Name  : FLASH_ProgramWord
 302:../LIB_HW/Driver/LIB_ST32/stm32f10x_flash.c **** * Description    : Programs a word at a specified address.
 303:../LIB_HW/Driver/LIB_ST32/stm32f10x_flash.c **** * Input          : - Address: specifies the address to be programmed.
 304:../LIB_HW/Driver/LIB_ST32/stm32f10x_flash.c **** *                  - Data: specifies the data to be programmed.
 305:../LIB_HW/Driver/LIB_ST32/stm32f10x_flash.c **** * Output         : None
 306:../LIB_HW/Driver/LIB_ST32/stm32f10x_flash.c **** * Return         : FLASH Status: The returned value can be: FLASH_BUSY, 
 307:../LIB_HW/Driver/LIB_ST32/stm32f10x_flash.c **** *                  FLASH_ERROR_PG, FLASH_ERROR_WRP, FLASH_COMPLETE or 
 308:../LIB_HW/Driver/LIB_ST32/stm32f10x_flash.c **** *                  FLASH_TIMEOUT. 
 309:../LIB_HW/Driver/LIB_ST32/stm32f10x_flash.c **** *******************************************************************************/
 310:../LIB_HW/Driver/LIB_ST32/stm32f10x_flash.c **** FLASH_Status FLASH_ProgramWord(u32 Address, u32 Data)
 311:../LIB_HW/Driver/LIB_ST32/stm32f10x_flash.c **** {
 312:../LIB_HW/Driver/LIB_ST32/stm32f10x_flash.c ****   FLASH_Status status = FLASH_COMPLETE;
 313:../LIB_HW/Driver/LIB_ST32/stm32f10x_flash.c **** 
 314:../LIB_HW/Driver/LIB_ST32/stm32f10x_flash.c ****   /* Check the parameters */
 315:../LIB_HW/Driver/LIB_ST32/stm32f10x_flash.c ****   assert_param(IS_FLASH_ADDRESS(Address));
 316:../LIB_HW/Driver/LIB_ST32/stm32f10x_flash.c **** 
 317:../LIB_HW/Driver/LIB_ST32/stm32f10x_flash.c ****   /* Wait for last operation to be completed */
 318:../LIB_HW/Driver/LIB_ST32/stm32f10x_flash.c ****   status = FLASH_WaitForLastOperation(ProgramTimeout);
 319:../LIB_HW/Driver/LIB_ST32/stm32f10x_flash.c ****   
 320:../LIB_HW/Driver/LIB_ST32/stm32f10x_flash.c ****   if(status == FLASH_COMPLETE)
 321:../LIB_HW/Driver/LIB_ST32/stm32f10x_flash.c ****   {
 322:../LIB_HW/Driver/LIB_ST32/stm32f10x_flash.c ****     /* if the previous operation is completed, proceed to program the new first 
 323:../LIB_HW/Driver/LIB_ST32/stm32f10x_flash.c ****     half word */
 324:../LIB_HW/Driver/LIB_ST32/stm32f10x_flash.c ****     FLASH->CR |= CR_PG_Set;
 325:../LIB_HW/Driver/LIB_ST32/stm32f10x_flash.c ****   
 326:../LIB_HW/Driver/LIB_ST32/stm32f10x_flash.c ****     *(vu16*)Address = (u16)Data;
 327:../LIB_HW/Driver/LIB_ST32/stm32f10x_flash.c **** 
 328:../LIB_HW/Driver/LIB_ST32/stm32f10x_flash.c ****     /* Wait for last operation to be completed */
 329:../LIB_HW/Driver/LIB_ST32/stm32f10x_flash.c ****     status = FLASH_WaitForLastOperation(ProgramTimeout);
 330:../LIB_HW/Driver/LIB_ST32/stm32f10x_flash.c ****  
 331:../LIB_HW/Driver/LIB_ST32/stm32f10x_flash.c ****     if(status == FLASH_COMPLETE)
 332:../LIB_HW/Driver/LIB_ST32/stm32f10x_flash.c ****     {
 333:../LIB_HW/Driver/LIB_ST32/stm32f10x_flash.c ****       /* if the previous operation is completed, proceed to program the new second 
 334:../LIB_HW/Driver/LIB_ST32/stm32f10x_flash.c ****       half word */
 335:../LIB_HW/Driver/LIB_ST32/stm32f10x_flash.c ****       *(vu16*)(Address + 2) = Data >> 16;
 336:../LIB_HW/Driver/LIB_ST32/stm32f10x_flash.c ****     
 337:../LIB_HW/Driver/LIB_ST32/stm32f10x_flash.c ****       /* Wait for last operation to be completed */
 338:../LIB_HW/Driver/LIB_ST32/stm32f10x_flash.c ****       status = FLASH_WaitForLastOperation(ProgramTimeout);
 339:../LIB_HW/Driver/LIB_ST32/stm32f10x_flash.c ****         
 340:../LIB_HW/Driver/LIB_ST32/stm32f10x_flash.c ****       if(status != FLASH_BUSY)
 341:../LIB_HW/Driver/LIB_ST32/stm32f10x_flash.c ****       {
 342:../LIB_HW/Driver/LIB_ST32/stm32f10x_flash.c ****         /* Disable the PG Bit */
 343:../LIB_HW/Driver/LIB_ST32/stm32f10x_flash.c ****         FLASH->CR &= CR_PG_Reset;
 344:../LIB_HW/Driver/LIB_ST32/stm32f10x_flash.c ****       }
 345:../LIB_HW/Driver/LIB_ST32/stm32f10x_flash.c ****     }
 346:../LIB_HW/Driver/LIB_ST32/stm32f10x_flash.c ****     else
 347:../LIB_HW/Driver/LIB_ST32/stm32f10x_flash.c ****     {
 348:../LIB_HW/Driver/LIB_ST32/stm32f10x_flash.c ****       if (status != FLASH_BUSY)
 349:../LIB_HW/Driver/LIB_ST32/stm32f10x_flash.c ****       {
 350:../LIB_HW/Driver/LIB_ST32/stm32f10x_flash.c ****         /* Disable the PG Bit */
 351:../LIB_HW/Driver/LIB_ST32/stm32f10x_flash.c ****         FLASH->CR &= CR_PG_Reset;
 352:../LIB_HW/Driver/LIB_ST32/stm32f10x_flash.c ****       }
 353:../LIB_HW/Driver/LIB_ST32/stm32f10x_flash.c ****      }
 354:../LIB_HW/Driver/LIB_ST32/stm32f10x_flash.c ****   }
 355:../LIB_HW/Driver/LIB_ST32/stm32f10x_flash.c ****   /* Return the Program Status */
 356:../LIB_HW/Driver/LIB_ST32/stm32f10x_flash.c ****   return status;
 357:../LIB_HW/Driver/LIB_ST32/stm32f10x_flash.c **** }
 358:../LIB_HW/Driver/LIB_ST32/stm32f10x_flash.c **** 
 359:../LIB_HW/Driver/LIB_ST32/stm32f10x_flash.c **** /*******************************************************************************
 360:../LIB_HW/Driver/LIB_ST32/stm32f10x_flash.c **** * Function Name  : FLASH_ProgramHalfWord
 361:../LIB_HW/Driver/LIB_ST32/stm32f10x_flash.c **** * Description    : Programs a half word at a specified address.
 362:../LIB_HW/Driver/LIB_ST32/stm32f10x_flash.c **** * Input          : - Address: specifies the address to be programmed.
 363:../LIB_HW/Driver/LIB_ST32/stm32f10x_flash.c **** *                  - Data: specifies the data to be programmed.
 364:../LIB_HW/Driver/LIB_ST32/stm32f10x_flash.c **** * Output         : None
 365:../LIB_HW/Driver/LIB_ST32/stm32f10x_flash.c **** * Return         : FLASH Status: The returned value can be: FLASH_BUSY, 
 366:../LIB_HW/Driver/LIB_ST32/stm32f10x_flash.c **** *                  FLASH_ERROR_PG, FLASH_ERROR_WRP, FLASH_COMPLETE or 
 367:../LIB_HW/Driver/LIB_ST32/stm32f10x_flash.c **** *                  FLASH_TIMEOUT. 
 368:../LIB_HW/Driver/LIB_ST32/stm32f10x_flash.c **** *******************************************************************************/
 369:../LIB_HW/Driver/LIB_ST32/stm32f10x_flash.c **** FLASH_Status FLASH_ProgramHalfWord(u32 Address, u16 Data)
 370:../LIB_HW/Driver/LIB_ST32/stm32f10x_flash.c **** {
 371:../LIB_HW/Driver/LIB_ST32/stm32f10x_flash.c ****   FLASH_Status status = FLASH_COMPLETE;
 372:../LIB_HW/Driver/LIB_ST32/stm32f10x_flash.c **** 
 373:../LIB_HW/Driver/LIB_ST32/stm32f10x_flash.c ****   /* Check the parameters */
 374:../LIB_HW/Driver/LIB_ST32/stm32f10x_flash.c ****   assert_param(IS_FLASH_ADDRESS(Address));
 375:../LIB_HW/Driver/LIB_ST32/stm32f10x_flash.c **** 
 376:../LIB_HW/Driver/LIB_ST32/stm32f10x_flash.c ****   /* Wait for last operation to be completed */
 377:../LIB_HW/Driver/LIB_ST32/stm32f10x_flash.c ****   status = FLASH_WaitForLastOperation(ProgramTimeout);
 378:../LIB_HW/Driver/LIB_ST32/stm32f10x_flash.c ****   
 379:../LIB_HW/Driver/LIB_ST32/stm32f10x_flash.c ****   if(status == FLASH_COMPLETE)
 380:../LIB_HW/Driver/LIB_ST32/stm32f10x_flash.c ****   {
 381:../LIB_HW/Driver/LIB_ST32/stm32f10x_flash.c ****     /* if the previous operation is completed, proceed to program the new data */
 382:../LIB_HW/Driver/LIB_ST32/stm32f10x_flash.c ****     FLASH->CR |= CR_PG_Set;
 383:../LIB_HW/Driver/LIB_ST32/stm32f10x_flash.c ****   
 384:../LIB_HW/Driver/LIB_ST32/stm32f10x_flash.c ****     *(vu16*)Address = Data;
 385:../LIB_HW/Driver/LIB_ST32/stm32f10x_flash.c ****     /* Wait for last operation to be completed */
 386:../LIB_HW/Driver/LIB_ST32/stm32f10x_flash.c ****     status = FLASH_WaitForLastOperation(ProgramTimeout);
 387:../LIB_HW/Driver/LIB_ST32/stm32f10x_flash.c **** 
 388:../LIB_HW/Driver/LIB_ST32/stm32f10x_flash.c ****     if(status != FLASH_BUSY)
 389:../LIB_HW/Driver/LIB_ST32/stm32f10x_flash.c ****     {
 390:../LIB_HW/Driver/LIB_ST32/stm32f10x_flash.c ****       /* if the program operation is completed, disable the PG Bit */
 391:../LIB_HW/Driver/LIB_ST32/stm32f10x_flash.c ****       FLASH->CR &= CR_PG_Reset;
 392:../LIB_HW/Driver/LIB_ST32/stm32f10x_flash.c ****     }
 393:../LIB_HW/Driver/LIB_ST32/stm32f10x_flash.c ****   } 
 394:../LIB_HW/Driver/LIB_ST32/stm32f10x_flash.c ****   /* Return the Program Status */
 395:../LIB_HW/Driver/LIB_ST32/stm32f10x_flash.c ****   return status;
 396:../LIB_HW/Driver/LIB_ST32/stm32f10x_flash.c **** }
 397:../LIB_HW/Driver/LIB_ST32/stm32f10x_flash.c **** 
 398:../LIB_HW/Driver/LIB_ST32/stm32f10x_flash.c **** /*******************************************************************************
 399:../LIB_HW/Driver/LIB_ST32/stm32f10x_flash.c **** * Function Name  : FLASH_ProgramOptionByteData
 400:../LIB_HW/Driver/LIB_ST32/stm32f10x_flash.c **** * Description    : Programs a half word at a specified Option Byte Data address.
 401:../LIB_HW/Driver/LIB_ST32/stm32f10x_flash.c **** * Input          : - Address: specifies the address to be programmed.
 402:../LIB_HW/Driver/LIB_ST32/stm32f10x_flash.c **** *                    This parameter can be 0x1FFFF804 or 0x1FFFF806. 
 403:../LIB_HW/Driver/LIB_ST32/stm32f10x_flash.c **** *                  - Data: specifies the data to be programmed.
 404:../LIB_HW/Driver/LIB_ST32/stm32f10x_flash.c **** * Output         : None
 405:../LIB_HW/Driver/LIB_ST32/stm32f10x_flash.c **** * Return         : FLASH Status: The returned value can be: FLASH_BUSY, 
 406:../LIB_HW/Driver/LIB_ST32/stm32f10x_flash.c **** *                  FLASH_ERROR_PG, FLASH_ERROR_WRP, FLASH_COMPLETE or 
 407:../LIB_HW/Driver/LIB_ST32/stm32f10x_flash.c **** *                  FLASH_TIMEOUT. 
 408:../LIB_HW/Driver/LIB_ST32/stm32f10x_flash.c **** *******************************************************************************/
 409:../LIB_HW/Driver/LIB_ST32/stm32f10x_flash.c **** FLASH_Status FLASH_ProgramOptionByteData(u32 Address, u8 Data)
 410:../LIB_HW/Driver/LIB_ST32/stm32f10x_flash.c **** {
 411:../LIB_HW/Driver/LIB_ST32/stm32f10x_flash.c ****   FLASH_Status status = FLASH_COMPLETE;
 412:../LIB_HW/Driver/LIB_ST32/stm32f10x_flash.c **** 
 413:../LIB_HW/Driver/LIB_ST32/stm32f10x_flash.c ****   /* Check the parameters */
 414:../LIB_HW/Driver/LIB_ST32/stm32f10x_flash.c ****   assert_param(IS_OB_DATA_ADDRESS(Address));
 415:../LIB_HW/Driver/LIB_ST32/stm32f10x_flash.c **** 
 416:../LIB_HW/Driver/LIB_ST32/stm32f10x_flash.c ****   status = FLASH_WaitForLastOperation(ProgramTimeout);
 417:../LIB_HW/Driver/LIB_ST32/stm32f10x_flash.c **** 
 418:../LIB_HW/Driver/LIB_ST32/stm32f10x_flash.c ****   if(status == FLASH_COMPLETE)
 419:../LIB_HW/Driver/LIB_ST32/stm32f10x_flash.c ****   {
 420:../LIB_HW/Driver/LIB_ST32/stm32f10x_flash.c ****     /* Authorize the small information block programming */
 421:../LIB_HW/Driver/LIB_ST32/stm32f10x_flash.c ****     FLASH->OPTKEYR = FLASH_KEY1;
 422:../LIB_HW/Driver/LIB_ST32/stm32f10x_flash.c ****     FLASH->OPTKEYR = FLASH_KEY2;
 423:../LIB_HW/Driver/LIB_ST32/stm32f10x_flash.c **** 
 424:../LIB_HW/Driver/LIB_ST32/stm32f10x_flash.c ****     /* Enables the Option Bytes Programming operation */
 425:../LIB_HW/Driver/LIB_ST32/stm32f10x_flash.c ****     FLASH->CR |= CR_OPTPG_Set; 
 426:../LIB_HW/Driver/LIB_ST32/stm32f10x_flash.c ****     *(vu16*)Address = Data;
 427:../LIB_HW/Driver/LIB_ST32/stm32f10x_flash.c ****     
 428:../LIB_HW/Driver/LIB_ST32/stm32f10x_flash.c ****     /* Wait for last operation to be completed */
 429:../LIB_HW/Driver/LIB_ST32/stm32f10x_flash.c ****     status = FLASH_WaitForLastOperation(ProgramTimeout);
 430:../LIB_HW/Driver/LIB_ST32/stm32f10x_flash.c **** 
 431:../LIB_HW/Driver/LIB_ST32/stm32f10x_flash.c ****     if(status != FLASH_BUSY)
 432:../LIB_HW/Driver/LIB_ST32/stm32f10x_flash.c ****     {
 433:../LIB_HW/Driver/LIB_ST32/stm32f10x_flash.c ****       /* if the program operation is completed, disable the OPTPG Bit */
 434:../LIB_HW/Driver/LIB_ST32/stm32f10x_flash.c ****       FLASH->CR &= CR_OPTPG_Reset;
 435:../LIB_HW/Driver/LIB_ST32/stm32f10x_flash.c ****     }
 436:../LIB_HW/Driver/LIB_ST32/stm32f10x_flash.c ****   }    
 437:../LIB_HW/Driver/LIB_ST32/stm32f10x_flash.c ****   /* Return the Option Byte Data Program Status */
 438:../LIB_HW/Driver/LIB_ST32/stm32f10x_flash.c ****   return status;      
 439:../LIB_HW/Driver/LIB_ST32/stm32f10x_flash.c **** }
 440:../LIB_HW/Driver/LIB_ST32/stm32f10x_flash.c **** 
 441:../LIB_HW/Driver/LIB_ST32/stm32f10x_flash.c **** /*******************************************************************************
 442:../LIB_HW/Driver/LIB_ST32/stm32f10x_flash.c **** * Function Name  : FLASH_EnableWriteProtection
 443:../LIB_HW/Driver/LIB_ST32/stm32f10x_flash.c **** * Description    : Write protects the desired pages
 444:../LIB_HW/Driver/LIB_ST32/stm32f10x_flash.c **** * Input          : - FLASH_Pages: specifies the address of the pages to be 
 445:../LIB_HW/Driver/LIB_ST32/stm32f10x_flash.c **** *                    write protected. This parameter can be:
 446:../LIB_HW/Driver/LIB_ST32/stm32f10x_flash.c **** *                    - For STM32F10Xxx Medium-density devices (FLASH page size equal to 1 KB)
 447:../LIB_HW/Driver/LIB_ST32/stm32f10x_flash.c **** *                       - A value between FLASH_WRProt_Pages0to3 and 
 448:../LIB_HW/Driver/LIB_ST32/stm32f10x_flash.c **** *                         FLASH_WRProt_Pages124to127
 449:../LIB_HW/Driver/LIB_ST32/stm32f10x_flash.c **** *                    - For STM32F10Xxx High-density devices (FLASH page size equal to 2 KB) 
 450:../LIB_HW/Driver/LIB_ST32/stm32f10x_flash.c **** *                       - A value between FLASH_WRProt_Pages0to1 and
 451:../LIB_HW/Driver/LIB_ST32/stm32f10x_flash.c **** *                         FLASH_WRProt_Pages60to61 or FLASH_WRProt_Pages62to255 
 452:../LIB_HW/Driver/LIB_ST32/stm32f10x_flash.c **** *                       - FLASH_WRProt_AllPages
 453:../LIB_HW/Driver/LIB_ST32/stm32f10x_flash.c **** * Output         : None
 454:../LIB_HW/Driver/LIB_ST32/stm32f10x_flash.c **** * Return         : FLASH Status: The returned value can be: FLASH_BUSY, 
 455:../LIB_HW/Driver/LIB_ST32/stm32f10x_flash.c **** *                  FLASH_ERROR_PG, FLASH_ERROR_WRP, FLASH_COMPLETE or 
 456:../LIB_HW/Driver/LIB_ST32/stm32f10x_flash.c **** *                  FLASH_TIMEOUT.
 457:../LIB_HW/Driver/LIB_ST32/stm32f10x_flash.c **** *******************************************************************************/
 458:../LIB_HW/Driver/LIB_ST32/stm32f10x_flash.c **** FLASH_Status FLASH_EnableWriteProtection(u32 FLASH_Pages)
 459:../LIB_HW/Driver/LIB_ST32/stm32f10x_flash.c **** {
 460:../LIB_HW/Driver/LIB_ST32/stm32f10x_flash.c ****   u16 WRP0_Data = 0xFFFF, WRP1_Data = 0xFFFF, WRP2_Data = 0xFFFF, WRP3_Data = 0xFFFF;
 461:../LIB_HW/Driver/LIB_ST32/stm32f10x_flash.c ****   
 462:../LIB_HW/Driver/LIB_ST32/stm32f10x_flash.c ****   FLASH_Status status = FLASH_COMPLETE;
 463:../LIB_HW/Driver/LIB_ST32/stm32f10x_flash.c ****   
 464:../LIB_HW/Driver/LIB_ST32/stm32f10x_flash.c ****   /* Check the parameters */
 465:../LIB_HW/Driver/LIB_ST32/stm32f10x_flash.c ****   assert_param(IS_FLASH_WRPROT_PAGE(FLASH_Pages));
 466:../LIB_HW/Driver/LIB_ST32/stm32f10x_flash.c ****   
 467:../LIB_HW/Driver/LIB_ST32/stm32f10x_flash.c ****   FLASH_Pages = (u32)(~FLASH_Pages);
 468:../LIB_HW/Driver/LIB_ST32/stm32f10x_flash.c ****   WRP0_Data = (vu16)(FLASH_Pages & WRP0_Mask);
 469:../LIB_HW/Driver/LIB_ST32/stm32f10x_flash.c ****   WRP1_Data = (vu16)((FLASH_Pages & WRP1_Mask) >> 8);
 470:../LIB_HW/Driver/LIB_ST32/stm32f10x_flash.c ****   WRP2_Data = (vu16)((FLASH_Pages & WRP2_Mask) >> 16);
 471:../LIB_HW/Driver/LIB_ST32/stm32f10x_flash.c ****   WRP3_Data = (vu16)((FLASH_Pages & WRP3_Mask) >> 24);
 472:../LIB_HW/Driver/LIB_ST32/stm32f10x_flash.c ****   
 473:../LIB_HW/Driver/LIB_ST32/stm32f10x_flash.c ****   /* Wait for last operation to be completed */
 474:../LIB_HW/Driver/LIB_ST32/stm32f10x_flash.c ****   status = FLASH_WaitForLastOperation(ProgramTimeout);
 475:../LIB_HW/Driver/LIB_ST32/stm32f10x_flash.c ****   
 476:../LIB_HW/Driver/LIB_ST32/stm32f10x_flash.c ****   if(status == FLASH_COMPLETE)
 477:../LIB_HW/Driver/LIB_ST32/stm32f10x_flash.c ****   {
 478:../LIB_HW/Driver/LIB_ST32/stm32f10x_flash.c ****     /* Authorizes the small information block programming */
 479:../LIB_HW/Driver/LIB_ST32/stm32f10x_flash.c ****     FLASH->OPTKEYR = FLASH_KEY1;
 480:../LIB_HW/Driver/LIB_ST32/stm32f10x_flash.c ****     FLASH->OPTKEYR = FLASH_KEY2;
 481:../LIB_HW/Driver/LIB_ST32/stm32f10x_flash.c ****     FLASH->CR |= CR_OPTPG_Set;
 482:../LIB_HW/Driver/LIB_ST32/stm32f10x_flash.c **** 
 483:../LIB_HW/Driver/LIB_ST32/stm32f10x_flash.c ****     if(WRP0_Data != 0xFF)
 484:../LIB_HW/Driver/LIB_ST32/stm32f10x_flash.c ****     {
 485:../LIB_HW/Driver/LIB_ST32/stm32f10x_flash.c ****       OB->WRP0 = WRP0_Data;
 486:../LIB_HW/Driver/LIB_ST32/stm32f10x_flash.c ****       
 487:../LIB_HW/Driver/LIB_ST32/stm32f10x_flash.c ****       /* Wait for last operation to be completed */
 488:../LIB_HW/Driver/LIB_ST32/stm32f10x_flash.c ****       status = FLASH_WaitForLastOperation(ProgramTimeout);
 489:../LIB_HW/Driver/LIB_ST32/stm32f10x_flash.c ****     }
 490:../LIB_HW/Driver/LIB_ST32/stm32f10x_flash.c ****     if((status == FLASH_COMPLETE) && (WRP1_Data != 0xFF))
 491:../LIB_HW/Driver/LIB_ST32/stm32f10x_flash.c ****     {
 492:../LIB_HW/Driver/LIB_ST32/stm32f10x_flash.c ****       OB->WRP1 = WRP1_Data;
 493:../LIB_HW/Driver/LIB_ST32/stm32f10x_flash.c ****       
 494:../LIB_HW/Driver/LIB_ST32/stm32f10x_flash.c ****       /* Wait for last operation to be completed */
 495:../LIB_HW/Driver/LIB_ST32/stm32f10x_flash.c ****       status = FLASH_WaitForLastOperation(ProgramTimeout);
 496:../LIB_HW/Driver/LIB_ST32/stm32f10x_flash.c ****     }
 497:../LIB_HW/Driver/LIB_ST32/stm32f10x_flash.c **** 
 498:../LIB_HW/Driver/LIB_ST32/stm32f10x_flash.c ****     if((status == FLASH_COMPLETE) && (WRP2_Data != 0xFF))
 499:../LIB_HW/Driver/LIB_ST32/stm32f10x_flash.c ****     {
 500:../LIB_HW/Driver/LIB_ST32/stm32f10x_flash.c ****       OB->WRP2 = WRP2_Data;
 501:../LIB_HW/Driver/LIB_ST32/stm32f10x_flash.c ****       
 502:../LIB_HW/Driver/LIB_ST32/stm32f10x_flash.c ****       /* Wait for last operation to be completed */
 503:../LIB_HW/Driver/LIB_ST32/stm32f10x_flash.c ****       status = FLASH_WaitForLastOperation(ProgramTimeout);
 504:../LIB_HW/Driver/LIB_ST32/stm32f10x_flash.c ****     }
 505:../LIB_HW/Driver/LIB_ST32/stm32f10x_flash.c ****     
 506:../LIB_HW/Driver/LIB_ST32/stm32f10x_flash.c ****     if((status == FLASH_COMPLETE)&& (WRP3_Data != 0xFF))
 507:../LIB_HW/Driver/LIB_ST32/stm32f10x_flash.c ****     {
 508:../LIB_HW/Driver/LIB_ST32/stm32f10x_flash.c ****       OB->WRP3 = WRP3_Data;
 509:../LIB_HW/Driver/LIB_ST32/stm32f10x_flash.c ****      
 510:../LIB_HW/Driver/LIB_ST32/stm32f10x_flash.c ****       /* Wait for last operation to be completed */
 511:../LIB_HW/Driver/LIB_ST32/stm32f10x_flash.c ****       status = FLASH_WaitForLastOperation(ProgramTimeout);
 512:../LIB_HW/Driver/LIB_ST32/stm32f10x_flash.c ****     }
 513:../LIB_HW/Driver/LIB_ST32/stm32f10x_flash.c ****           
 514:../LIB_HW/Driver/LIB_ST32/stm32f10x_flash.c ****     if(status != FLASH_BUSY)
 515:../LIB_HW/Driver/LIB_ST32/stm32f10x_flash.c ****     {
 516:../LIB_HW/Driver/LIB_ST32/stm32f10x_flash.c ****       /* if the program operation is completed, disable the OPTPG Bit */
 517:../LIB_HW/Driver/LIB_ST32/stm32f10x_flash.c ****       FLASH->CR &= CR_OPTPG_Reset;
 518:../LIB_HW/Driver/LIB_ST32/stm32f10x_flash.c ****     }
 519:../LIB_HW/Driver/LIB_ST32/stm32f10x_flash.c ****   } 
 520:../LIB_HW/Driver/LIB_ST32/stm32f10x_flash.c ****   /* Return the write protection operation Status */
 521:../LIB_HW/Driver/LIB_ST32/stm32f10x_flash.c ****   return status;       
 522:../LIB_HW/Driver/LIB_ST32/stm32f10x_flash.c **** }
 523:../LIB_HW/Driver/LIB_ST32/stm32f10x_flash.c **** 
 524:../LIB_HW/Driver/LIB_ST32/stm32f10x_flash.c **** /*******************************************************************************
 525:../LIB_HW/Driver/LIB_ST32/stm32f10x_flash.c **** * Function Name  : FLASH_ReadOutProtection
 526:../LIB_HW/Driver/LIB_ST32/stm32f10x_flash.c **** * Description    : Enables or disables the read out protection.
 527:../LIB_HW/Driver/LIB_ST32/stm32f10x_flash.c **** *                  If the user has already programmed the other option bytes before 
 528:../LIB_HW/Driver/LIB_ST32/stm32f10x_flash.c **** *                  calling this function, he must re-program them since this 
 529:../LIB_HW/Driver/LIB_ST32/stm32f10x_flash.c **** *                  function erases all option bytes.
 530:../LIB_HW/Driver/LIB_ST32/stm32f10x_flash.c **** * Input          : - Newstate: new state of the ReadOut Protection.
 531:../LIB_HW/Driver/LIB_ST32/stm32f10x_flash.c **** *                    This parameter can be: ENABLE or DISABLE.
 532:../LIB_HW/Driver/LIB_ST32/stm32f10x_flash.c **** * Output         : None
 533:../LIB_HW/Driver/LIB_ST32/stm32f10x_flash.c **** * Return         : FLASH Status: The returned value can be: FLASH_BUSY, 
 534:../LIB_HW/Driver/LIB_ST32/stm32f10x_flash.c **** *                  FLASH_ERROR_PG, FLASH_ERROR_WRP, FLASH_COMPLETE or 
 535:../LIB_HW/Driver/LIB_ST32/stm32f10x_flash.c **** *                  FLASH_TIMEOUT.
 536:../LIB_HW/Driver/LIB_ST32/stm32f10x_flash.c **** *******************************************************************************/
 537:../LIB_HW/Driver/LIB_ST32/stm32f10x_flash.c **** FLASH_Status FLASH_ReadOutProtection(FunctionalState NewState)
 538:../LIB_HW/Driver/LIB_ST32/stm32f10x_flash.c **** {
 539:../LIB_HW/Driver/LIB_ST32/stm32f10x_flash.c ****   FLASH_Status status = FLASH_COMPLETE;
 540:../LIB_HW/Driver/LIB_ST32/stm32f10x_flash.c **** 
 541:../LIB_HW/Driver/LIB_ST32/stm32f10x_flash.c ****   /* Check the parameters */
 542:../LIB_HW/Driver/LIB_ST32/stm32f10x_flash.c ****   assert_param(IS_FUNCTIONAL_STATE(NewState));
 543:../LIB_HW/Driver/LIB_ST32/stm32f10x_flash.c **** 
 544:../LIB_HW/Driver/LIB_ST32/stm32f10x_flash.c ****   status = FLASH_WaitForLastOperation(EraseTimeout);
 545:../LIB_HW/Driver/LIB_ST32/stm32f10x_flash.c **** 
 546:../LIB_HW/Driver/LIB_ST32/stm32f10x_flash.c ****   if(status == FLASH_COMPLETE)
 547:../LIB_HW/Driver/LIB_ST32/stm32f10x_flash.c ****   {
 548:../LIB_HW/Driver/LIB_ST32/stm32f10x_flash.c ****     /* Authorizes the small information block programming */
 549:../LIB_HW/Driver/LIB_ST32/stm32f10x_flash.c ****     FLASH->OPTKEYR = FLASH_KEY1;
 550:../LIB_HW/Driver/LIB_ST32/stm32f10x_flash.c ****     FLASH->OPTKEYR = FLASH_KEY2;
 551:../LIB_HW/Driver/LIB_ST32/stm32f10x_flash.c **** 
 552:../LIB_HW/Driver/LIB_ST32/stm32f10x_flash.c ****     FLASH->CR |= CR_OPTER_Set;
 553:../LIB_HW/Driver/LIB_ST32/stm32f10x_flash.c ****     FLASH->CR |= CR_STRT_Set;
 554:../LIB_HW/Driver/LIB_ST32/stm32f10x_flash.c **** 
 555:../LIB_HW/Driver/LIB_ST32/stm32f10x_flash.c ****     /* Wait for last operation to be completed */
 556:../LIB_HW/Driver/LIB_ST32/stm32f10x_flash.c ****     status = FLASH_WaitForLastOperation(EraseTimeout);
 557:../LIB_HW/Driver/LIB_ST32/stm32f10x_flash.c **** 
 558:../LIB_HW/Driver/LIB_ST32/stm32f10x_flash.c ****     if(status == FLASH_COMPLETE)
 559:../LIB_HW/Driver/LIB_ST32/stm32f10x_flash.c ****     {
 560:../LIB_HW/Driver/LIB_ST32/stm32f10x_flash.c ****       /* if the erase operation is completed, disable the OPTER Bit */
 561:../LIB_HW/Driver/LIB_ST32/stm32f10x_flash.c ****       FLASH->CR &= CR_OPTER_Reset;
 562:../LIB_HW/Driver/LIB_ST32/stm32f10x_flash.c **** 
 563:../LIB_HW/Driver/LIB_ST32/stm32f10x_flash.c ****       /* Enable the Option Bytes Programming operation */
 564:../LIB_HW/Driver/LIB_ST32/stm32f10x_flash.c ****       FLASH->CR |= CR_OPTPG_Set; 
 565:../LIB_HW/Driver/LIB_ST32/stm32f10x_flash.c **** 
 566:../LIB_HW/Driver/LIB_ST32/stm32f10x_flash.c ****       if(NewState != DISABLE)
 567:../LIB_HW/Driver/LIB_ST32/stm32f10x_flash.c ****       {
 568:../LIB_HW/Driver/LIB_ST32/stm32f10x_flash.c ****         OB->RDP = 0x00;
 569:../LIB_HW/Driver/LIB_ST32/stm32f10x_flash.c ****       }
 570:../LIB_HW/Driver/LIB_ST32/stm32f10x_flash.c ****       else
 571:../LIB_HW/Driver/LIB_ST32/stm32f10x_flash.c ****       {
 572:../LIB_HW/Driver/LIB_ST32/stm32f10x_flash.c ****         OB->RDP = RDP_Key;  
 573:../LIB_HW/Driver/LIB_ST32/stm32f10x_flash.c ****       }
 574:../LIB_HW/Driver/LIB_ST32/stm32f10x_flash.c **** 
 575:../LIB_HW/Driver/LIB_ST32/stm32f10x_flash.c ****       /* Wait for last operation to be completed */
 576:../LIB_HW/Driver/LIB_ST32/stm32f10x_flash.c ****       status = FLASH_WaitForLastOperation(EraseTimeout); 
 577:../LIB_HW/Driver/LIB_ST32/stm32f10x_flash.c ****     
 578:../LIB_HW/Driver/LIB_ST32/stm32f10x_flash.c ****       if(status != FLASH_BUSY)
 579:../LIB_HW/Driver/LIB_ST32/stm32f10x_flash.c ****       {
 580:../LIB_HW/Driver/LIB_ST32/stm32f10x_flash.c ****         /* if the program operation is completed, disable the OPTPG Bit */
 581:../LIB_HW/Driver/LIB_ST32/stm32f10x_flash.c ****         FLASH->CR &= CR_OPTPG_Reset;
 582:../LIB_HW/Driver/LIB_ST32/stm32f10x_flash.c ****       }
 583:../LIB_HW/Driver/LIB_ST32/stm32f10x_flash.c ****     }
 584:../LIB_HW/Driver/LIB_ST32/stm32f10x_flash.c ****     else 
 585:../LIB_HW/Driver/LIB_ST32/stm32f10x_flash.c ****     {
 586:../LIB_HW/Driver/LIB_ST32/stm32f10x_flash.c ****       if(status != FLASH_BUSY)
 587:../LIB_HW/Driver/LIB_ST32/stm32f10x_flash.c ****       {
 588:../LIB_HW/Driver/LIB_ST32/stm32f10x_flash.c ****         /* Disable the OPTER Bit */
 589:../LIB_HW/Driver/LIB_ST32/stm32f10x_flash.c ****         FLASH->CR &= CR_OPTER_Reset;
 590:../LIB_HW/Driver/LIB_ST32/stm32f10x_flash.c ****       }
 591:../LIB_HW/Driver/LIB_ST32/stm32f10x_flash.c ****     }
 592:../LIB_HW/Driver/LIB_ST32/stm32f10x_flash.c ****   }
 593:../LIB_HW/Driver/LIB_ST32/stm32f10x_flash.c ****   /* Return the protection operation Status */
 594:../LIB_HW/Driver/LIB_ST32/stm32f10x_flash.c ****   return status;      
 595:../LIB_HW/Driver/LIB_ST32/stm32f10x_flash.c **** }
 596:../LIB_HW/Driver/LIB_ST32/stm32f10x_flash.c ****   	
 597:../LIB_HW/Driver/LIB_ST32/stm32f10x_flash.c **** /*******************************************************************************
 598:../LIB_HW/Driver/LIB_ST32/stm32f10x_flash.c **** * Function Name  : FLASH_UserOptionByteConfig
 599:../LIB_HW/Driver/LIB_ST32/stm32f10x_flash.c **** * Description    : Programs the FLASH User Option Byte: IWDG_SW / RST_STOP /
 600:../LIB_HW/Driver/LIB_ST32/stm32f10x_flash.c **** *                  RST_STDBY.
 601:../LIB_HW/Driver/LIB_ST32/stm32f10x_flash.c **** * Input          : - OB_IWDG: Selects the IWDG mode
 602:../LIB_HW/Driver/LIB_ST32/stm32f10x_flash.c **** *                     This parameter can be one of the following values:
 603:../LIB_HW/Driver/LIB_ST32/stm32f10x_flash.c **** *                     - OB_IWDG_SW: Software IWDG selected
 604:../LIB_HW/Driver/LIB_ST32/stm32f10x_flash.c **** *                     - OB_IWDG_HW: Hardware IWDG selected
 605:../LIB_HW/Driver/LIB_ST32/stm32f10x_flash.c **** *                  - OB_STOP: Reset event when entering STOP mode.
 606:../LIB_HW/Driver/LIB_ST32/stm32f10x_flash.c **** *                     This parameter can be one of the following values:
 607:../LIB_HW/Driver/LIB_ST32/stm32f10x_flash.c **** *                     - OB_STOP_NoRST: No reset generated when entering in STOP
 608:../LIB_HW/Driver/LIB_ST32/stm32f10x_flash.c **** *                     - OB_STOP_RST: Reset generated when entering in STOP
 609:../LIB_HW/Driver/LIB_ST32/stm32f10x_flash.c **** *                  - OB_STDBY: Reset event when entering Standby mode.
 610:../LIB_HW/Driver/LIB_ST32/stm32f10x_flash.c **** *                    This parameter can be one of the following values:
 611:../LIB_HW/Driver/LIB_ST32/stm32f10x_flash.c **** *                     - OB_STDBY_NoRST: No reset generated when entering in STANDBY
 612:../LIB_HW/Driver/LIB_ST32/stm32f10x_flash.c **** *                     - OB_STDBY_RST: Reset generated when entering in STANDBY
 613:../LIB_HW/Driver/LIB_ST32/stm32f10x_flash.c **** * Output         : None
 614:../LIB_HW/Driver/LIB_ST32/stm32f10x_flash.c **** * Return         : FLASH Status: The returned value can be: FLASH_BUSY, 
 615:../LIB_HW/Driver/LIB_ST32/stm32f10x_flash.c **** *                  FLASH_ERROR_PG, FLASH_ERROR_WRP, FLASH_COMPLETE or 
 616:../LIB_HW/Driver/LIB_ST32/stm32f10x_flash.c **** *                  FLASH_TIMEOUT.
 617:../LIB_HW/Driver/LIB_ST32/stm32f10x_flash.c **** *******************************************************************************/
 618:../LIB_HW/Driver/LIB_ST32/stm32f10x_flash.c **** FLASH_Status FLASH_UserOptionByteConfig(u16 OB_IWDG, u16 OB_STOP, u16 OB_STDBY)
 619:../LIB_HW/Driver/LIB_ST32/stm32f10x_flash.c **** {
 620:../LIB_HW/Driver/LIB_ST32/stm32f10x_flash.c ****   FLASH_Status status = FLASH_COMPLETE; 
 621:../LIB_HW/Driver/LIB_ST32/stm32f10x_flash.c **** 
 622:../LIB_HW/Driver/LIB_ST32/stm32f10x_flash.c ****   /* Check the parameters */
 623:../LIB_HW/Driver/LIB_ST32/stm32f10x_flash.c ****   assert_param(IS_OB_IWDG_SOURCE(OB_IWDG));
 624:../LIB_HW/Driver/LIB_ST32/stm32f10x_flash.c ****   assert_param(IS_OB_STOP_SOURCE(OB_STOP));
 625:../LIB_HW/Driver/LIB_ST32/stm32f10x_flash.c ****   assert_param(IS_OB_STDBY_SOURCE(OB_STDBY));
 626:../LIB_HW/Driver/LIB_ST32/stm32f10x_flash.c **** 
 627:../LIB_HW/Driver/LIB_ST32/stm32f10x_flash.c ****   /* Authorize the small information block programming */
 628:../LIB_HW/Driver/LIB_ST32/stm32f10x_flash.c ****   FLASH->OPTKEYR = FLASH_KEY1;
 629:../LIB_HW/Driver/LIB_ST32/stm32f10x_flash.c ****   FLASH->OPTKEYR = FLASH_KEY2;
 630:../LIB_HW/Driver/LIB_ST32/stm32f10x_flash.c ****   
 631:../LIB_HW/Driver/LIB_ST32/stm32f10x_flash.c ****   /* Wait for last operation to be completed */
 632:../LIB_HW/Driver/LIB_ST32/stm32f10x_flash.c ****   status = FLASH_WaitForLastOperation(ProgramTimeout);
 633:../LIB_HW/Driver/LIB_ST32/stm32f10x_flash.c ****   
 634:../LIB_HW/Driver/LIB_ST32/stm32f10x_flash.c ****   if(status == FLASH_COMPLETE)
 635:../LIB_HW/Driver/LIB_ST32/stm32f10x_flash.c ****   {  
 636:../LIB_HW/Driver/LIB_ST32/stm32f10x_flash.c ****     /* Enable the Option Bytes Programming operation */
 637:../LIB_HW/Driver/LIB_ST32/stm32f10x_flash.c ****     FLASH->CR |= CR_OPTPG_Set; 
 638:../LIB_HW/Driver/LIB_ST32/stm32f10x_flash.c ****            
 639:../LIB_HW/Driver/LIB_ST32/stm32f10x_flash.c ****     OB->USER = ( OB_IWDG | OB_STOP |OB_STDBY) | (u16)0xF8; 
 640:../LIB_HW/Driver/LIB_ST32/stm32f10x_flash.c ****   
 641:../LIB_HW/Driver/LIB_ST32/stm32f10x_flash.c ****     /* Wait for last operation to be completed */
 642:../LIB_HW/Driver/LIB_ST32/stm32f10x_flash.c ****     status = FLASH_WaitForLastOperation(ProgramTimeout);
 643:../LIB_HW/Driver/LIB_ST32/stm32f10x_flash.c **** 
 644:../LIB_HW/Driver/LIB_ST32/stm32f10x_flash.c ****     if(status != FLASH_BUSY)
 645:../LIB_HW/Driver/LIB_ST32/stm32f10x_flash.c ****     {
 646:../LIB_HW/Driver/LIB_ST32/stm32f10x_flash.c ****       /* if the program operation is completed, disable the OPTPG Bit */
 647:../LIB_HW/Driver/LIB_ST32/stm32f10x_flash.c ****       FLASH->CR &= CR_OPTPG_Reset;
 648:../LIB_HW/Driver/LIB_ST32/stm32f10x_flash.c ****     }
 649:../LIB_HW/Driver/LIB_ST32/stm32f10x_flash.c ****   }    
 650:../LIB_HW/Driver/LIB_ST32/stm32f10x_flash.c ****   /* Return the Option Byte program Status */
 651:../LIB_HW/Driver/LIB_ST32/stm32f10x_flash.c ****   return status;
 652:../LIB_HW/Driver/LIB_ST32/stm32f10x_flash.c **** }
 653:../LIB_HW/Driver/LIB_ST32/stm32f10x_flash.c **** 
 654:../LIB_HW/Driver/LIB_ST32/stm32f10x_flash.c **** /*******************************************************************************
 655:../LIB_HW/Driver/LIB_ST32/stm32f10x_flash.c **** * Function Name  : FLASH_GetUserOptionByte
 656:../LIB_HW/Driver/LIB_ST32/stm32f10x_flash.c **** * Description    : Returns the FLASH User Option Bytes values.
 657:../LIB_HW/Driver/LIB_ST32/stm32f10x_flash.c **** * Input          : None
 658:../LIB_HW/Driver/LIB_ST32/stm32f10x_flash.c **** * Output         : None
 659:../LIB_HW/Driver/LIB_ST32/stm32f10x_flash.c **** * Return         : The FLASH User Option Bytes values:IWDG_SW(Bit0), RST_STOP(Bit1)
 660:../LIB_HW/Driver/LIB_ST32/stm32f10x_flash.c **** *                  and RST_STDBY(Bit2).
 661:../LIB_HW/Driver/LIB_ST32/stm32f10x_flash.c **** *******************************************************************************/
 662:../LIB_HW/Driver/LIB_ST32/stm32f10x_flash.c **** u32 FLASH_GetUserOptionByte(void)
 663:../LIB_HW/Driver/LIB_ST32/stm32f10x_flash.c **** {
 168              		.loc 1 663 0
 169              		.cfi_startproc
 170              		@ args = 0, pretend = 0, frame = 0
 171              		@ frame_needed = 0, uses_anonymous_args = 0
 172              		@ link register save eliminated.
 664:../LIB_HW/Driver/LIB_ST32/stm32f10x_flash.c ****   /* Return the User Option Byte */
 665:../LIB_HW/Driver/LIB_ST32/stm32f10x_flash.c ****   return (u32)(FLASH->OBR >> 2);
 173              		.loc 1 665 0
 174 0000 4FF40053 		mov	r3, #8192
 175 0004 C4F20203 		movt	r3, 16386
 176 0008 D869     		ldr	r0, [r3, #28]
 666:../LIB_HW/Driver/LIB_ST32/stm32f10x_flash.c **** }
 177              		.loc 1 666 0
 178 000a 8008     		lsrs	r0, r0, #2
 179 000c 7047     		bx	lr
 180              		.cfi_endproc
 181              	.LFE14:
 183 000e 00BF     		.section	.text.FLASH_GetWriteProtectionOptionByte,"ax",%progbits
 184              		.align	2
 185              		.global	FLASH_GetWriteProtectionOptionByte
 186              		.thumb
 187              		.thumb_func
 189              	FLASH_GetWriteProtectionOptionByte:
 190              	.LFB15:
 667:../LIB_HW/Driver/LIB_ST32/stm32f10x_flash.c **** 
 668:../LIB_HW/Driver/LIB_ST32/stm32f10x_flash.c **** /*******************************************************************************
 669:../LIB_HW/Driver/LIB_ST32/stm32f10x_flash.c **** * Function Name  : FLASH_GetWriteProtectionOptionByte
 670:../LIB_HW/Driver/LIB_ST32/stm32f10x_flash.c **** * Description    : Returns the FLASH Write Protection Option Bytes Register value.
 671:../LIB_HW/Driver/LIB_ST32/stm32f10x_flash.c **** * Input          : None
 672:../LIB_HW/Driver/LIB_ST32/stm32f10x_flash.c **** * Output         : None
 673:../LIB_HW/Driver/LIB_ST32/stm32f10x_flash.c **** * Return         : The FLASH Write Protection  Option Bytes Register value
 674:../LIB_HW/Driver/LIB_ST32/stm32f10x_flash.c **** *******************************************************************************/
 675:../LIB_HW/Driver/LIB_ST32/stm32f10x_flash.c **** u32 FLASH_GetWriteProtectionOptionByte(void)
 676:../LIB_HW/Driver/LIB_ST32/stm32f10x_flash.c **** {
 191              		.loc 1 676 0
 192              		.cfi_startproc
 193              		@ args = 0, pretend = 0, frame = 0
 194              		@ frame_needed = 0, uses_anonymous_args = 0
 195              		@ link register save eliminated.
 677:../LIB_HW/Driver/LIB_ST32/stm32f10x_flash.c ****   /* Return the Falsh write protection Register value */
 678:../LIB_HW/Driver/LIB_ST32/stm32f10x_flash.c ****   return (u32)(FLASH->WRPR);
 196              		.loc 1 678 0
 197 0000 4FF40053 		mov	r3, #8192
 198 0004 C4F20203 		movt	r3, 16386
 199 0008 186A     		ldr	r0, [r3, #32]
 679:../LIB_HW/Driver/LIB_ST32/stm32f10x_flash.c **** }
 200              		.loc 1 679 0
 201 000a 7047     		bx	lr
 202              		.cfi_endproc
 203              	.LFE15:
 205              		.section	.text.FLASH_GetReadOutProtectionStatus,"ax",%progbits
 206              		.align	2
 207              		.global	FLASH_GetReadOutProtectionStatus
 208              		.thumb
 209              		.thumb_func
 211              	FLASH_GetReadOutProtectionStatus:
 212              	.LFB16:
 680:../LIB_HW/Driver/LIB_ST32/stm32f10x_flash.c **** 
 681:../LIB_HW/Driver/LIB_ST32/stm32f10x_flash.c **** /*******************************************************************************
 682:../LIB_HW/Driver/LIB_ST32/stm32f10x_flash.c **** * Function Name  : FLASH_GetReadOutProtectionStatus
 683:../LIB_HW/Driver/LIB_ST32/stm32f10x_flash.c **** * Description    : Checks whether the FLASH Read Out Protection Status is set 
 684:../LIB_HW/Driver/LIB_ST32/stm32f10x_flash.c **** *                  or not.
 685:../LIB_HW/Driver/LIB_ST32/stm32f10x_flash.c **** * Input          : None
 686:../LIB_HW/Driver/LIB_ST32/stm32f10x_flash.c **** * Output         : None
 687:../LIB_HW/Driver/LIB_ST32/stm32f10x_flash.c **** * Return         : FLASH ReadOut Protection Status(SET or RESET)
 688:../LIB_HW/Driver/LIB_ST32/stm32f10x_flash.c **** *******************************************************************************/
 689:../LIB_HW/Driver/LIB_ST32/stm32f10x_flash.c **** FlagStatus FLASH_GetReadOutProtectionStatus(void)
 690:../LIB_HW/Driver/LIB_ST32/stm32f10x_flash.c **** {
 213              		.loc 1 690 0
 214              		.cfi_startproc
 215              		@ args = 0, pretend = 0, frame = 0
 216              		@ frame_needed = 0, uses_anonymous_args = 0
 217              		@ link register save eliminated.
 218              	.LVL6:
 691:../LIB_HW/Driver/LIB_ST32/stm32f10x_flash.c ****   FlagStatus readoutstatus = RESET;
 692:../LIB_HW/Driver/LIB_ST32/stm32f10x_flash.c **** 
 693:../LIB_HW/Driver/LIB_ST32/stm32f10x_flash.c ****   if ((FLASH->OBR & RDPRT_Mask) != (u32)RESET)
 219              		.loc 1 693 0
 220 0000 4FF40053 		mov	r3, #8192
 221 0004 C4F20203 		movt	r3, 16386
 222 0008 D869     		ldr	r0, [r3, #28]
 223              	.LVL7:
 694:../LIB_HW/Driver/LIB_ST32/stm32f10x_flash.c ****   {
 695:../LIB_HW/Driver/LIB_ST32/stm32f10x_flash.c ****     readoutstatus = SET;
 696:../LIB_HW/Driver/LIB_ST32/stm32f10x_flash.c ****   }
 697:../LIB_HW/Driver/LIB_ST32/stm32f10x_flash.c ****   else
 698:../LIB_HW/Driver/LIB_ST32/stm32f10x_flash.c ****   {
 699:../LIB_HW/Driver/LIB_ST32/stm32f10x_flash.c ****     readoutstatus = RESET;
 700:../LIB_HW/Driver/LIB_ST32/stm32f10x_flash.c ****   }
 701:../LIB_HW/Driver/LIB_ST32/stm32f10x_flash.c ****   return readoutstatus;
 702:../LIB_HW/Driver/LIB_ST32/stm32f10x_flash.c **** }
 224              		.loc 1 702 0
 225 000a C0F34000 		ubfx	r0, r0, #1, #1
 226              	.LVL8:
 227 000e 7047     		bx	lr
 228              		.cfi_endproc
 229              	.LFE16:
 231              		.section	.text.FLASH_GetPrefetchBufferStatus,"ax",%progbits
 232              		.align	2
 233              		.global	FLASH_GetPrefetchBufferStatus
 234              		.thumb
 235              		.thumb_func
 237              	FLASH_GetPrefetchBufferStatus:
 238              	.LFB17:
 703:../LIB_HW/Driver/LIB_ST32/stm32f10x_flash.c **** 
 704:../LIB_HW/Driver/LIB_ST32/stm32f10x_flash.c **** /*******************************************************************************
 705:../LIB_HW/Driver/LIB_ST32/stm32f10x_flash.c **** * Function Name  : FLASH_GetPrefetchBufferStatus
 706:../LIB_HW/Driver/LIB_ST32/stm32f10x_flash.c **** * Description    : Checks whether the FLASH Prefetch Buffer status is set or not.
 707:../LIB_HW/Driver/LIB_ST32/stm32f10x_flash.c **** * Input          : None
 708:../LIB_HW/Driver/LIB_ST32/stm32f10x_flash.c **** * Output         : None
 709:../LIB_HW/Driver/LIB_ST32/stm32f10x_flash.c **** * Return         : FLASH Prefetch Buffer Status (SET or RESET).
 710:../LIB_HW/Driver/LIB_ST32/stm32f10x_flash.c **** *******************************************************************************/
 711:../LIB_HW/Driver/LIB_ST32/stm32f10x_flash.c **** FlagStatus FLASH_GetPrefetchBufferStatus(void)
 712:../LIB_HW/Driver/LIB_ST32/stm32f10x_flash.c **** {
 239              		.loc 1 712 0
 240              		.cfi_startproc
 241              		@ args = 0, pretend = 0, frame = 0
 242              		@ frame_needed = 0, uses_anonymous_args = 0
 243              		@ link register save eliminated.
 244              	.LVL9:
 713:../LIB_HW/Driver/LIB_ST32/stm32f10x_flash.c ****   FlagStatus bitstatus = RESET;
 714:../LIB_HW/Driver/LIB_ST32/stm32f10x_flash.c ****   
 715:../LIB_HW/Driver/LIB_ST32/stm32f10x_flash.c ****   if ((FLASH->ACR & ACR_PRFTBS_Mask) != (u32)RESET)
 245              		.loc 1 715 0
 246 0000 4FF40053 		mov	r3, #8192
 247 0004 C4F20203 		movt	r3, 16386
 248 0008 1868     		ldr	r0, [r3, #0]
 249              	.LVL10:
 716:../LIB_HW/Driver/LIB_ST32/stm32f10x_flash.c ****   {
 717:../LIB_HW/Driver/LIB_ST32/stm32f10x_flash.c ****     bitstatus = SET;
 718:../LIB_HW/Driver/LIB_ST32/stm32f10x_flash.c ****   }
 719:../LIB_HW/Driver/LIB_ST32/stm32f10x_flash.c ****   else
 720:../LIB_HW/Driver/LIB_ST32/stm32f10x_flash.c ****   {
 721:../LIB_HW/Driver/LIB_ST32/stm32f10x_flash.c ****     bitstatus = RESET;
 722:../LIB_HW/Driver/LIB_ST32/stm32f10x_flash.c ****   }
 723:../LIB_HW/Driver/LIB_ST32/stm32f10x_flash.c ****   /* Return the new state of FLASH Prefetch Buffer Status (SET or RESET) */
 724:../LIB_HW/Driver/LIB_ST32/stm32f10x_flash.c ****   return bitstatus; 
 725:../LIB_HW/Driver/LIB_ST32/stm32f10x_flash.c **** }
 250              		.loc 1 725 0
 251 000a C0F34010 		ubfx	r0, r0, #5, #1
 252              	.LVL11:
 253 000e 7047     		bx	lr
 254              		.cfi_endproc
 255              	.LFE17:
 257              		.section	.text.FLASH_ITConfig,"ax",%progbits
 258              		.align	2
 259              		.global	FLASH_ITConfig
 260              		.thumb
 261              		.thumb_func
 263              	FLASH_ITConfig:
 264              	.LFB18:
 726:../LIB_HW/Driver/LIB_ST32/stm32f10x_flash.c **** 
 727:../LIB_HW/Driver/LIB_ST32/stm32f10x_flash.c **** /*******************************************************************************
 728:../LIB_HW/Driver/LIB_ST32/stm32f10x_flash.c **** * Function Name  : FLASH_ITConfig
 729:../LIB_HW/Driver/LIB_ST32/stm32f10x_flash.c **** * Description    : Enables or disables the specified FLASH interrupts.
 730:../LIB_HW/Driver/LIB_ST32/stm32f10x_flash.c **** * Input          : - FLASH_IT: specifies the FLASH interrupt sources to be 
 731:../LIB_HW/Driver/LIB_ST32/stm32f10x_flash.c **** *                    enabled or disabled.
 732:../LIB_HW/Driver/LIB_ST32/stm32f10x_flash.c **** *                    This parameter can be any combination of the following values:
 733:../LIB_HW/Driver/LIB_ST32/stm32f10x_flash.c **** *                       - FLASH_IT_ERROR: FLASH Error Interrupt
 734:../LIB_HW/Driver/LIB_ST32/stm32f10x_flash.c **** *                       - FLASH_IT_EOP: FLASH end of operation Interrupt
 735:../LIB_HW/Driver/LIB_ST32/stm32f10x_flash.c **** * Output         : None
 736:../LIB_HW/Driver/LIB_ST32/stm32f10x_flash.c **** * Return         : None 
 737:../LIB_HW/Driver/LIB_ST32/stm32f10x_flash.c **** *******************************************************************************/
 738:../LIB_HW/Driver/LIB_ST32/stm32f10x_flash.c **** void FLASH_ITConfig(u16 FLASH_IT, FunctionalState NewState)
 739:../LIB_HW/Driver/LIB_ST32/stm32f10x_flash.c **** {
 265              		.loc 1 739 0
 266              		.cfi_startproc
 267              		@ args = 0, pretend = 0, frame = 0
 268              		@ frame_needed = 0, uses_anonymous_args = 0
 269              		@ link register save eliminated.
 270              	.LVL12:
 740:../LIB_HW/Driver/LIB_ST32/stm32f10x_flash.c ****   /* Check the parameters */
 741:../LIB_HW/Driver/LIB_ST32/stm32f10x_flash.c ****   assert_param(IS_FLASH_IT(FLASH_IT)); 
 742:../LIB_HW/Driver/LIB_ST32/stm32f10x_flash.c ****   assert_param(IS_FUNCTIONAL_STATE(NewState));
 743:../LIB_HW/Driver/LIB_ST32/stm32f10x_flash.c **** 
 744:../LIB_HW/Driver/LIB_ST32/stm32f10x_flash.c ****   if(NewState != DISABLE)
 745:../LIB_HW/Driver/LIB_ST32/stm32f10x_flash.c ****   {
 746:../LIB_HW/Driver/LIB_ST32/stm32f10x_flash.c ****     /* Enable the interrupt sources */
 747:../LIB_HW/Driver/LIB_ST32/stm32f10x_flash.c ****     FLASH->CR |= FLASH_IT;
 271              		.loc 1 747 0
 272 0000 4FF40053 		mov	r3, #8192
 273 0004 C4F20203 		movt	r3, 16386
 274 0008 1A69     		ldr	r2, [r3, #16]
 744:../LIB_HW/Driver/LIB_ST32/stm32f10x_flash.c ****   if(NewState != DISABLE)
 275              		.loc 1 744 0
 276 000a 19B9     		cbnz	r1, .L14
 748:../LIB_HW/Driver/LIB_ST32/stm32f10x_flash.c ****   }
 749:../LIB_HW/Driver/LIB_ST32/stm32f10x_flash.c ****   else
 750:../LIB_HW/Driver/LIB_ST32/stm32f10x_flash.c ****   {
 751:../LIB_HW/Driver/LIB_ST32/stm32f10x_flash.c ****     /* Disable the interrupt sources */
 752:../LIB_HW/Driver/LIB_ST32/stm32f10x_flash.c ****     FLASH->CR &= ~(u32)FLASH_IT;
 277              		.loc 1 752 0
 278 000c 22EA0000 		bic	r0, r2, r0
 279              	.LVL13:
 280 0010 1861     		str	r0, [r3, #16]
 281 0012 7047     		bx	lr
 282              	.LVL14:
 283              	.L14:
 747:../LIB_HW/Driver/LIB_ST32/stm32f10x_flash.c ****     FLASH->CR |= FLASH_IT;
 284              		.loc 1 747 0
 285 0014 1043     		orrs	r0, r0, r2
 286              	.LVL15:
 287 0016 1861     		str	r0, [r3, #16]
 288 0018 7047     		bx	lr
 289              		.cfi_endproc
 290              	.LFE18:
 292 001a 00BF     		.section	.text.FLASH_GetFlagStatus,"ax",%progbits
 293              		.align	2
 294              		.global	FLASH_GetFlagStatus
 295              		.thumb
 296              		.thumb_func
 298              	FLASH_GetFlagStatus:
 299              	.LFB19:
 753:../LIB_HW/Driver/LIB_ST32/stm32f10x_flash.c ****   }
 754:../LIB_HW/Driver/LIB_ST32/stm32f10x_flash.c **** }
 755:../LIB_HW/Driver/LIB_ST32/stm32f10x_flash.c **** 
 756:../LIB_HW/Driver/LIB_ST32/stm32f10x_flash.c **** /*******************************************************************************
 757:../LIB_HW/Driver/LIB_ST32/stm32f10x_flash.c **** * Function Name  : FLASH_GetFlagStatus
 758:../LIB_HW/Driver/LIB_ST32/stm32f10x_flash.c **** * Description    : Checks whether the specified FLASH flag is set or not.
 759:../LIB_HW/Driver/LIB_ST32/stm32f10x_flash.c **** * Input          : - FLASH_FLAG: specifies the FLASH flag to check.
 760:../LIB_HW/Driver/LIB_ST32/stm32f10x_flash.c **** *                     This parameter can be one of the following values:
 761:../LIB_HW/Driver/LIB_ST32/stm32f10x_flash.c **** *                    - FLASH_FLAG_BSY: FLASH Busy flag           
 762:../LIB_HW/Driver/LIB_ST32/stm32f10x_flash.c **** *                    - FLASH_FLAG_PGERR: FLASH Program error flag       
 763:../LIB_HW/Driver/LIB_ST32/stm32f10x_flash.c **** *                    - FLASH_FLAG_WRPRTERR: FLASH Write protected error flag      
 764:../LIB_HW/Driver/LIB_ST32/stm32f10x_flash.c **** *                    - FLASH_FLAG_EOP: FLASH End of Operation flag           
 765:../LIB_HW/Driver/LIB_ST32/stm32f10x_flash.c **** *                    - FLASH_FLAG_OPTERR:  FLASH Option Byte error flag     
 766:../LIB_HW/Driver/LIB_ST32/stm32f10x_flash.c **** * Output         : None
 767:../LIB_HW/Driver/LIB_ST32/stm32f10x_flash.c **** * Return         : The new state of FLASH_FLAG (SET or RESET).
 768:../LIB_HW/Driver/LIB_ST32/stm32f10x_flash.c **** *******************************************************************************/
 769:../LIB_HW/Driver/LIB_ST32/stm32f10x_flash.c **** FlagStatus FLASH_GetFlagStatus(u16 FLASH_FLAG)
 770:../LIB_HW/Driver/LIB_ST32/stm32f10x_flash.c **** {
 300              		.loc 1 770 0
 301              		.cfi_startproc
 302              		@ args = 0, pretend = 0, frame = 0
 303              		@ frame_needed = 0, uses_anonymous_args = 0
 304              		@ link register save eliminated.
 305              	.LVL16:
 771:../LIB_HW/Driver/LIB_ST32/stm32f10x_flash.c ****   FlagStatus bitstatus = RESET;
 772:../LIB_HW/Driver/LIB_ST32/stm32f10x_flash.c **** 
 773:../LIB_HW/Driver/LIB_ST32/stm32f10x_flash.c ****   /* Check the parameters */
 774:../LIB_HW/Driver/LIB_ST32/stm32f10x_flash.c ****   assert_param(IS_FLASH_GET_FLAG(FLASH_FLAG)) ;
 775:../LIB_HW/Driver/LIB_ST32/stm32f10x_flash.c **** 
 776:../LIB_HW/Driver/LIB_ST32/stm32f10x_flash.c ****   if(FLASH_FLAG == FLASH_FLAG_OPTERR) 
 777:../LIB_HW/Driver/LIB_ST32/stm32f10x_flash.c ****   {
 778:../LIB_HW/Driver/LIB_ST32/stm32f10x_flash.c ****     if((FLASH->OBR & FLASH_FLAG_OPTERR) != (u32)RESET)
 306              		.loc 1 778 0
 307 0000 4FF40053 		mov	r3, #8192
 776:../LIB_HW/Driver/LIB_ST32/stm32f10x_flash.c ****   if(FLASH_FLAG == FLASH_FLAG_OPTERR) 
 308              		.loc 1 776 0
 309 0004 0128     		cmp	r0, #1
 310              		.loc 1 778 0
 311 0006 C4F20203 		movt	r3, 16386
 776:../LIB_HW/Driver/LIB_ST32/stm32f10x_flash.c ****   if(FLASH_FLAG == FLASH_FLAG_OPTERR) 
 312              		.loc 1 776 0
 313 000a 05D0     		beq	.L18
 779:../LIB_HW/Driver/LIB_ST32/stm32f10x_flash.c ****     {
 780:../LIB_HW/Driver/LIB_ST32/stm32f10x_flash.c ****       bitstatus = SET;
 781:../LIB_HW/Driver/LIB_ST32/stm32f10x_flash.c ****     }
 782:../LIB_HW/Driver/LIB_ST32/stm32f10x_flash.c ****     else
 783:../LIB_HW/Driver/LIB_ST32/stm32f10x_flash.c ****     {
 784:../LIB_HW/Driver/LIB_ST32/stm32f10x_flash.c ****       bitstatus = RESET;
 785:../LIB_HW/Driver/LIB_ST32/stm32f10x_flash.c ****     }
 786:../LIB_HW/Driver/LIB_ST32/stm32f10x_flash.c ****   }
 787:../LIB_HW/Driver/LIB_ST32/stm32f10x_flash.c ****   else
 788:../LIB_HW/Driver/LIB_ST32/stm32f10x_flash.c ****   {
 789:../LIB_HW/Driver/LIB_ST32/stm32f10x_flash.c ****    if((FLASH->SR & FLASH_FLAG) != (u32)RESET)
 314              		.loc 1 789 0
 315 000c DB68     		ldr	r3, [r3, #12]
 316 000e 1842     		tst	r0, r3
 784:../LIB_HW/Driver/LIB_ST32/stm32f10x_flash.c ****       bitstatus = RESET;
 317              		.loc 1 784 0
 318 0010 0CBF     		ite	eq
 319 0012 0020     		moveq	r0, #0
 320 0014 0120     		movne	r0, #1
 321              	.LVL17:
 790:../LIB_HW/Driver/LIB_ST32/stm32f10x_flash.c ****     {
 791:../LIB_HW/Driver/LIB_ST32/stm32f10x_flash.c ****       bitstatus = SET;
 792:../LIB_HW/Driver/LIB_ST32/stm32f10x_flash.c ****     }
 793:../LIB_HW/Driver/LIB_ST32/stm32f10x_flash.c ****     else
 794:../LIB_HW/Driver/LIB_ST32/stm32f10x_flash.c ****     {
 795:../LIB_HW/Driver/LIB_ST32/stm32f10x_flash.c ****       bitstatus = RESET;
 796:../LIB_HW/Driver/LIB_ST32/stm32f10x_flash.c ****     }
 797:../LIB_HW/Driver/LIB_ST32/stm32f10x_flash.c ****   }
 798:../LIB_HW/Driver/LIB_ST32/stm32f10x_flash.c ****   /* Return the new state of FLASH_FLAG (SET or RESET) */
 799:../LIB_HW/Driver/LIB_ST32/stm32f10x_flash.c ****   return bitstatus;
 800:../LIB_HW/Driver/LIB_ST32/stm32f10x_flash.c **** }
 322              		.loc 1 800 0
 323 0016 7047     		bx	lr
 324              	.LVL18:
 325              	.L18:
 778:../LIB_HW/Driver/LIB_ST32/stm32f10x_flash.c ****     if((FLASH->OBR & FLASH_FLAG_OPTERR) != (u32)RESET)
 326              		.loc 1 778 0
 327 0018 D869     		ldr	r0, [r3, #28]
 328              	.LVL19:
 784:../LIB_HW/Driver/LIB_ST32/stm32f10x_flash.c ****       bitstatus = RESET;
 329              		.loc 1 784 0
 330 001a 00F00100 		and	r0, r0, #1
 331 001e 7047     		bx	lr
 332              		.cfi_endproc
 333              	.LFE19:
 335              		.section	.text.FLASH_ClearFlag,"ax",%progbits
 336              		.align	2
 337              		.global	FLASH_ClearFlag
 338              		.thumb
 339              		.thumb_func
 341              	FLASH_ClearFlag:
 342              	.LFB20:
 801:../LIB_HW/Driver/LIB_ST32/stm32f10x_flash.c **** 
 802:../LIB_HW/Driver/LIB_ST32/stm32f10x_flash.c **** /*******************************************************************************
 803:../LIB_HW/Driver/LIB_ST32/stm32f10x_flash.c **** * Function Name  : FLASH_ClearFlag
 804:../LIB_HW/Driver/LIB_ST32/stm32f10x_flash.c **** * Description    : Clears the FLASHs pending flags.
 805:../LIB_HW/Driver/LIB_ST32/stm32f10x_flash.c **** * Input          : - FLASH_FLAG: specifies the FLASH flags to clear.
 806:../LIB_HW/Driver/LIB_ST32/stm32f10x_flash.c **** *                    This parameter can be any combination of the following values:
 807:../LIB_HW/Driver/LIB_ST32/stm32f10x_flash.c **** *                    - FLASH_FLAG_BSY: FLASH Busy flag           
 808:../LIB_HW/Driver/LIB_ST32/stm32f10x_flash.c **** *                    - FLASH_FLAG_PGERR: FLASH Program error flag       
 809:../LIB_HW/Driver/LIB_ST32/stm32f10x_flash.c **** *                    - FLASH_FLAG_WRPRTERR: FLASH Write protected error flag      
 810:../LIB_HW/Driver/LIB_ST32/stm32f10x_flash.c **** *                    - FLASH_FLAG_EOP: FLASH End of Operation flag           
 811:../LIB_HW/Driver/LIB_ST32/stm32f10x_flash.c **** * Output         : None
 812:../LIB_HW/Driver/LIB_ST32/stm32f10x_flash.c **** * Return         : None
 813:../LIB_HW/Driver/LIB_ST32/stm32f10x_flash.c **** *******************************************************************************/
 814:../LIB_HW/Driver/LIB_ST32/stm32f10x_flash.c **** void FLASH_ClearFlag(u16 FLASH_FLAG)
 815:../LIB_HW/Driver/LIB_ST32/stm32f10x_flash.c **** {
 343              		.loc 1 815 0
 344              		.cfi_startproc
 345              		@ args = 0, pretend = 0, frame = 0
 346              		@ frame_needed = 0, uses_anonymous_args = 0
 347              		@ link register save eliminated.
 348              	.LVL20:
 816:../LIB_HW/Driver/LIB_ST32/stm32f10x_flash.c ****   /* Check the parameters */
 817:../LIB_HW/Driver/LIB_ST32/stm32f10x_flash.c ****   assert_param(IS_FLASH_CLEAR_FLAG(FLASH_FLAG)) ;
 818:../LIB_HW/Driver/LIB_ST32/stm32f10x_flash.c ****   
 819:../LIB_HW/Driver/LIB_ST32/stm32f10x_flash.c ****   /* Clear the flags */
 820:../LIB_HW/Driver/LIB_ST32/stm32f10x_flash.c ****   FLASH->SR = FLASH_FLAG;
 349              		.loc 1 820 0
 350 0000 4FF40053 		mov	r3, #8192
 351 0004 C4F20203 		movt	r3, 16386
 352 0008 D860     		str	r0, [r3, #12]
 353 000a 7047     		bx	lr
 354              		.cfi_endproc
 355              	.LFE20:
 357              		.section	.text.FLASH_GetStatus,"ax",%progbits
 358              		.align	2
 359              		.global	FLASH_GetStatus
 360              		.thumb
 361              		.thumb_func
 363              	FLASH_GetStatus:
 364              	.LFB21:
 821:../LIB_HW/Driver/LIB_ST32/stm32f10x_flash.c **** }
 822:../LIB_HW/Driver/LIB_ST32/stm32f10x_flash.c **** 
 823:../LIB_HW/Driver/LIB_ST32/stm32f10x_flash.c **** /*******************************************************************************
 824:../LIB_HW/Driver/LIB_ST32/stm32f10x_flash.c **** * Function Name  : FLASH_GetStatus
 825:../LIB_HW/Driver/LIB_ST32/stm32f10x_flash.c **** * Description    : Returns the FLASH Status.
 826:../LIB_HW/Driver/LIB_ST32/stm32f10x_flash.c **** * Input          : None
 827:../LIB_HW/Driver/LIB_ST32/stm32f10x_flash.c **** * Output         : None
 828:../LIB_HW/Driver/LIB_ST32/stm32f10x_flash.c **** * Return         : FLASH Status: The returned value can be: FLASH_BUSY, 
 829:../LIB_HW/Driver/LIB_ST32/stm32f10x_flash.c **** *                  FLASH_ERROR_PG, FLASH_ERROR_WRP or FLASH_COMPLETE
 830:../LIB_HW/Driver/LIB_ST32/stm32f10x_flash.c **** *******************************************************************************/
 831:../LIB_HW/Driver/LIB_ST32/stm32f10x_flash.c **** FLASH_Status FLASH_GetStatus(void)
 832:../LIB_HW/Driver/LIB_ST32/stm32f10x_flash.c **** {
 365              		.loc 1 832 0
 366              		.cfi_startproc
 367              		@ args = 0, pretend = 0, frame = 0
 368              		@ frame_needed = 0, uses_anonymous_args = 0
 369              		@ link register save eliminated.
 370              	.LVL21:
 833:../LIB_HW/Driver/LIB_ST32/stm32f10x_flash.c ****   FLASH_Status flashstatus = FLASH_COMPLETE;
 834:../LIB_HW/Driver/LIB_ST32/stm32f10x_flash.c ****   
 835:../LIB_HW/Driver/LIB_ST32/stm32f10x_flash.c ****   if((FLASH->SR & FLASH_FLAG_BSY) == FLASH_FLAG_BSY) 
 371              		.loc 1 835 0
 372 0000 4FF40053 		mov	r3, #8192
 373 0004 C4F20203 		movt	r3, 16386
 374 0008 DA68     		ldr	r2, [r3, #12]
 375 000a D107     		lsls	r1, r2, #31
 376 000c 0BD4     		bmi	.L23
 836:../LIB_HW/Driver/LIB_ST32/stm32f10x_flash.c ****   {
 837:../LIB_HW/Driver/LIB_ST32/stm32f10x_flash.c ****     flashstatus = FLASH_BUSY;
 838:../LIB_HW/Driver/LIB_ST32/stm32f10x_flash.c ****   }
 839:../LIB_HW/Driver/LIB_ST32/stm32f10x_flash.c ****   else 
 840:../LIB_HW/Driver/LIB_ST32/stm32f10x_flash.c ****   {  
 841:../LIB_HW/Driver/LIB_ST32/stm32f10x_flash.c ****     if(FLASH->SR & FLASH_FLAG_PGERR)
 377              		.loc 1 841 0
 378 000e DA68     		ldr	r2, [r3, #12]
 379 0010 5207     		lsls	r2, r2, #29
 380 0012 01D5     		bpl	.L26
 842:../LIB_HW/Driver/LIB_ST32/stm32f10x_flash.c ****     { 
 843:../LIB_HW/Driver/LIB_ST32/stm32f10x_flash.c ****       flashstatus = FLASH_ERROR_PG;
 381              		.loc 1 843 0
 382 0014 0220     		movs	r0, #2
 383              	.LVL22:
 844:../LIB_HW/Driver/LIB_ST32/stm32f10x_flash.c ****     }
 845:../LIB_HW/Driver/LIB_ST32/stm32f10x_flash.c ****     else 
 846:../LIB_HW/Driver/LIB_ST32/stm32f10x_flash.c ****     {
 847:../LIB_HW/Driver/LIB_ST32/stm32f10x_flash.c ****       if(FLASH->SR & FLASH_FLAG_WRPRTERR)
 848:../LIB_HW/Driver/LIB_ST32/stm32f10x_flash.c ****       {
 849:../LIB_HW/Driver/LIB_ST32/stm32f10x_flash.c ****         flashstatus = FLASH_ERROR_WRP;
 850:../LIB_HW/Driver/LIB_ST32/stm32f10x_flash.c ****       }
 851:../LIB_HW/Driver/LIB_ST32/stm32f10x_flash.c ****       else
 852:../LIB_HW/Driver/LIB_ST32/stm32f10x_flash.c ****       {
 853:../LIB_HW/Driver/LIB_ST32/stm32f10x_flash.c ****         flashstatus = FLASH_COMPLETE;
 854:../LIB_HW/Driver/LIB_ST32/stm32f10x_flash.c ****       }
 855:../LIB_HW/Driver/LIB_ST32/stm32f10x_flash.c ****     }
 856:../LIB_HW/Driver/LIB_ST32/stm32f10x_flash.c ****   }
 857:../LIB_HW/Driver/LIB_ST32/stm32f10x_flash.c ****   /* Return the Flash Status */
 858:../LIB_HW/Driver/LIB_ST32/stm32f10x_flash.c ****   return flashstatus;
 859:../LIB_HW/Driver/LIB_ST32/stm32f10x_flash.c **** }
 384              		.loc 1 859 0
 385 0016 7047     		bx	lr
 386              	.LVL23:
 387              	.L26:
 388              	.LBB6:
 389              	.LBB7:
 847:../LIB_HW/Driver/LIB_ST32/stm32f10x_flash.c ****       if(FLASH->SR & FLASH_FLAG_WRPRTERR)
 390              		.loc 1 847 0
 391 0018 DB68     		ldr	r3, [r3, #12]
 392 001a 13F0100F 		tst	r3, #16
 849:../LIB_HW/Driver/LIB_ST32/stm32f10x_flash.c ****         flashstatus = FLASH_ERROR_WRP;
 393              		.loc 1 849 0
 394 001e 0CBF     		ite	eq
 395 0020 0420     		moveq	r0, #4
 396 0022 0320     		movne	r0, #3
 397 0024 7047     		bx	lr
 398              	.L23:
 399              	.LBE7:
 400              	.LBE6:
 837:../LIB_HW/Driver/LIB_ST32/stm32f10x_flash.c ****     flashstatus = FLASH_BUSY;
 401              		.loc 1 837 0
 402 0026 0120     		movs	r0, #1
 403 0028 7047     		bx	lr
 404              		.cfi_endproc
 405              	.LFE21:
 407 002a 00BF     		.section	.text.FLASH_WaitForLastOperation,"ax",%progbits
 408              		.align	2
 409              		.global	FLASH_WaitForLastOperation
 410              		.thumb
 411              		.thumb_func
 413              	FLASH_WaitForLastOperation:
 414              	.LFB22:
 860:../LIB_HW/Driver/LIB_ST32/stm32f10x_flash.c **** 
 861:../LIB_HW/Driver/LIB_ST32/stm32f10x_flash.c **** /*******************************************************************************
 862:../LIB_HW/Driver/LIB_ST32/stm32f10x_flash.c **** * Function Name  : FLASH_WaitForLastOperation
 863:../LIB_HW/Driver/LIB_ST32/stm32f10x_flash.c **** * Description    : Waits for a Flash operation to complete or a TIMEOUT to occur.
 864:../LIB_HW/Driver/LIB_ST32/stm32f10x_flash.c **** * Input          : - Timeout: FLASH progamming Timeout
 865:../LIB_HW/Driver/LIB_ST32/stm32f10x_flash.c **** * Output         : None
 866:../LIB_HW/Driver/LIB_ST32/stm32f10x_flash.c **** * Return         : FLASH Status: The returned value can be: FLASH_BUSY, 
 867:../LIB_HW/Driver/LIB_ST32/stm32f10x_flash.c **** *                  FLASH_ERROR_PG, FLASH_ERROR_WRP, FLASH_COMPLETE or 
 868:../LIB_HW/Driver/LIB_ST32/stm32f10x_flash.c **** *                  FLASH_TIMEOUT.
 869:../LIB_HW/Driver/LIB_ST32/stm32f10x_flash.c **** *******************************************************************************/
 870:../LIB_HW/Driver/LIB_ST32/stm32f10x_flash.c **** FLASH_Status FLASH_WaitForLastOperation(u32 Timeout)
 871:../LIB_HW/Driver/LIB_ST32/stm32f10x_flash.c **** { 
 415              		.loc 1 871 0
 416              		.cfi_startproc
 417              		@ args = 0, pretend = 0, frame = 8
 418              		@ frame_needed = 0, uses_anonymous_args = 0
 419              	.LVL24:
 420 0000 F0B5     		push	{r4, r5, r6, r7, lr}
 421              	.LCFI0:
 422              		.cfi_def_cfa_offset 20
 423              		.cfi_offset 4, -20
 424              		.cfi_offset 5, -16
 425              		.cfi_offset 6, -12
 426              		.cfi_offset 7, -8
 427              		.cfi_offset 14, -4
 872:../LIB_HW/Driver/LIB_ST32/stm32f10x_flash.c ****   FLASH_Status status = FLASH_COMPLETE;
 873:../LIB_HW/Driver/LIB_ST32/stm32f10x_flash.c ****    
 874:../LIB_HW/Driver/LIB_ST32/stm32f10x_flash.c ****   /* Check for the Flash Status */
 875:../LIB_HW/Driver/LIB_ST32/stm32f10x_flash.c ****   status = FLASH_GetStatus();
 428              		.loc 1 875 0
 429 0002 154D     		ldr	r5, .L41
 871:../LIB_HW/Driver/LIB_ST32/stm32f10x_flash.c **** { 
 430              		.loc 1 871 0
 431 0004 83B0     		sub	sp, sp, #12
 432              	.LCFI1:
 433              		.cfi_def_cfa_offset 32
 871:../LIB_HW/Driver/LIB_ST32/stm32f10x_flash.c **** { 
 434              		.loc 1 871 0
 435 0006 0446     		mov	r4, r0
 436              		.loc 1 875 0
 437 0008 A847     		blx	r5
 438              	.LVL25:
 876:../LIB_HW/Driver/LIB_ST32/stm32f10x_flash.c **** 
 877:../LIB_HW/Driver/LIB_ST32/stm32f10x_flash.c ****   /* Wait for a Flash operation to complete or a TIMEOUT to occur */
 878:../LIB_HW/Driver/LIB_ST32/stm32f10x_flash.c ****   while((status == FLASH_BUSY) && (Timeout != 0x00))
 439              		.loc 1 878 0
 440 000a B0F1010E 		subs	lr, r0, #1
 441 000e DEF10003 		rsbs	r3, lr, #0
 442 0012 53EB0E03 		adcs	r3, r3, lr
 443 0016 002C     		cmp	r4, #0
 444 0018 08BF     		it	eq
 445 001a 0023     		moveq	r3, #0
 446 001c BBB1     		cbz	r3, .L28
 447              	.LBB8:
 448              	.LBB9:
 879:../LIB_HW/Driver/LIB_ST32/stm32f10x_flash.c ****   {
 880:../LIB_HW/Driver/LIB_ST32/stm32f10x_flash.c ****     delay();
 881:../LIB_HW/Driver/LIB_ST32/stm32f10x_flash.c ****     status = FLASH_GetStatus();
 882:../LIB_HW/Driver/LIB_ST32/stm32f10x_flash.c ****     Timeout--;
 883:../LIB_HW/Driver/LIB_ST32/stm32f10x_flash.c ****   }
 884:../LIB_HW/Driver/LIB_ST32/stm32f10x_flash.c **** 
 885:../LIB_HW/Driver/LIB_ST32/stm32f10x_flash.c ****   if(Timeout == 0x00 )
 886:../LIB_HW/Driver/LIB_ST32/stm32f10x_flash.c ****   {
 887:../LIB_HW/Driver/LIB_ST32/stm32f10x_flash.c ****     status = FLASH_TIMEOUT;
 888:../LIB_HW/Driver/LIB_ST32/stm32f10x_flash.c ****   }
 889:../LIB_HW/Driver/LIB_ST32/stm32f10x_flash.c **** 
 890:../LIB_HW/Driver/LIB_ST32/stm32f10x_flash.c ****   /* Return the operation status */
 891:../LIB_HW/Driver/LIB_ST32/stm32f10x_flash.c ****   return status;
 892:../LIB_HW/Driver/LIB_ST32/stm32f10x_flash.c **** }
 893:../LIB_HW/Driver/LIB_ST32/stm32f10x_flash.c **** 
 894:../LIB_HW/Driver/LIB_ST32/stm32f10x_flash.c **** /*******************************************************************************
 895:../LIB_HW/Driver/LIB_ST32/stm32f10x_flash.c **** * Function Name  : delay
 896:../LIB_HW/Driver/LIB_ST32/stm32f10x_flash.c **** * Description    : Inserts a time delay.
 897:../LIB_HW/Driver/LIB_ST32/stm32f10x_flash.c **** * Input          : None
 898:../LIB_HW/Driver/LIB_ST32/stm32f10x_flash.c **** * Output         : None
 899:../LIB_HW/Driver/LIB_ST32/stm32f10x_flash.c **** * Return         : None
 900:../LIB_HW/Driver/LIB_ST32/stm32f10x_flash.c **** *******************************************************************************/
 901:../LIB_HW/Driver/LIB_ST32/stm32f10x_flash.c **** static void delay(void)
 902:../LIB_HW/Driver/LIB_ST32/stm32f10x_flash.c **** {
 903:../LIB_HW/Driver/LIB_ST32/stm32f10x_flash.c ****   vu32 i = 0;
 449              		.loc 1 903 0
 450 001e 0027     		movs	r7, #0
 904:../LIB_HW/Driver/LIB_ST32/stm32f10x_flash.c **** 
 905:../LIB_HW/Driver/LIB_ST32/stm32f10x_flash.c ****   for(i = 0xFF; i != 0; i--)
 451              		.loc 1 905 0
 452 0020 FF26     		movs	r6, #255
 453              	.LVL26:
 454              	.L36:
 903:../LIB_HW/Driver/LIB_ST32/stm32f10x_flash.c ****   vu32 i = 0;
 455              		.loc 1 903 0
 456 0022 0197     		str	r7, [sp, #4]
 457              		.loc 1 905 0
 458 0024 0196     		str	r6, [sp, #4]
 459 0026 019B     		ldr	r3, [sp, #4]
 460 0028 2BB1     		cbz	r3, .L31
 461              	.L37:
 462 002a 019B     		ldr	r3, [sp, #4]
 463 002c 013B     		subs	r3, r3, #1
 464              	.LVL27:
 465 002e 0193     		str	r3, [sp, #4]
 466              	.LVL28:
 467 0030 019B     		ldr	r3, [sp, #4]
 468              	.LVL29:
 469 0032 002B     		cmp	r3, #0
 470 0034 F9D1     		bne	.L37
 471              	.L31:
 472              	.LBE9:
 473              	.LBE8:
 881:../LIB_HW/Driver/LIB_ST32/stm32f10x_flash.c ****     status = FLASH_GetStatus();
 474              		.loc 1 881 0
 475 0036 A847     		blx	r5
 476              	.LVL30:
 878:../LIB_HW/Driver/LIB_ST32/stm32f10x_flash.c ****   while((status == FLASH_BUSY) && (Timeout != 0x00))
 477              		.loc 1 878 0
 478 0038 013C     		subs	r4, r4, #1
 479              	.LVL31:
 480 003a 0CBF     		ite	eq
 481 003c 0023     		moveq	r3, #0
 482 003e 0123     		movne	r3, #1
 483 0040 0128     		cmp	r0, #1
 484 0042 14BF     		ite	ne
 485 0044 0023     		movne	r3, #0
 486 0046 03F00103 		andeq	r3, r3, #1
 487 004a 002B     		cmp	r3, #0
 488 004c E9D1     		bne	.L36
 489              	.LVL32:
 490              	.L28:
 892:../LIB_HW/Driver/LIB_ST32/stm32f10x_flash.c **** }
 491              		.loc 1 892 0
 492 004e 002C     		cmp	r4, #0
 493 0050 08BF     		it	eq
 494 0052 0520     		moveq	r0, #5
 495              	.LVL33:
 496 0054 03B0     		add	sp, sp, #12
 497 0056 F0BD     		pop	{r4, r5, r6, r7, pc}
 498              	.L42:
 499              		.align	2
 500              	.L41:
 501 0058 00000000 		.word	FLASH_GetStatus
 502              		.cfi_endproc
 503              	.LFE22:
 505              		.section	.text.FLASH_UserOptionByteConfig,"ax",%progbits
 506              		.align	2
 507              		.global	FLASH_UserOptionByteConfig
 508              		.thumb
 509              		.thumb_func
 511              	FLASH_UserOptionByteConfig:
 512              	.LFB13:
 619:../LIB_HW/Driver/LIB_ST32/stm32f10x_flash.c **** {
 513              		.loc 1 619 0
 514              		.cfi_startproc
 515              		@ args = 0, pretend = 0, frame = 0
 516              		@ frame_needed = 0, uses_anonymous_args = 0
 517              	.LVL34:
 518 0000 2DE9F041 		push	{r4, r5, r6, r7, r8, lr}
 519              	.LCFI2:
 520              		.cfi_def_cfa_offset 24
 521              		.cfi_offset 4, -24
 522              		.cfi_offset 5, -20
 523              		.cfi_offset 6, -16
 524              		.cfi_offset 7, -12
 525              		.cfi_offset 8, -8
 526              		.cfi_offset 14, -4
 629:../LIB_HW/Driver/LIB_ST32/stm32f10x_flash.c ****   FLASH->OPTKEYR = FLASH_KEY2;
 527              		.loc 1 629 0
 528 0004 48F6AB13 		movw	r3, #35243
 628:../LIB_HW/Driver/LIB_ST32/stm32f10x_flash.c ****   FLASH->OPTKEYR = FLASH_KEY1;
 529              		.loc 1 628 0
 530 0008 4FF40054 		mov	r4, #8192
 531 000c 40F22315 		movw	r5, #291
 532 0010 C4F20204 		movt	r4, 16386
 533 0014 C4F26755 		movt	r5, 17767
 629:../LIB_HW/Driver/LIB_ST32/stm32f10x_flash.c ****   FLASH->OPTKEYR = FLASH_KEY2;
 534              		.loc 1 629 0
 535 0018 CCF6EF53 		movt	r3, 52719
 628:../LIB_HW/Driver/LIB_ST32/stm32f10x_flash.c ****   FLASH->OPTKEYR = FLASH_KEY1;
 536              		.loc 1 628 0
 537 001c A560     		str	r5, [r4, #8]
 619:../LIB_HW/Driver/LIB_ST32/stm32f10x_flash.c **** {
 538              		.loc 1 619 0
 539 001e 8046     		mov	r8, r0
 629:../LIB_HW/Driver/LIB_ST32/stm32f10x_flash.c ****   FLASH->OPTKEYR = FLASH_KEY2;
 540              		.loc 1 629 0
 541 0020 A360     		str	r3, [r4, #8]
 632:../LIB_HW/Driver/LIB_ST32/stm32f10x_flash.c ****   status = FLASH_WaitForLastOperation(ProgramTimeout);
 542              		.loc 1 632 0
 543 0022 0F20     		movs	r0, #15
 544              	.LVL35:
 545 0024 104D     		ldr	r5, .L49
 619:../LIB_HW/Driver/LIB_ST32/stm32f10x_flash.c **** {
 546              		.loc 1 619 0
 547 0026 0F46     		mov	r7, r1
 548 0028 1646     		mov	r6, r2
 632:../LIB_HW/Driver/LIB_ST32/stm32f10x_flash.c ****   status = FLASH_WaitForLastOperation(ProgramTimeout);
 549              		.loc 1 632 0
 550 002a A847     		blx	r5
 551              	.LVL36:
 634:../LIB_HW/Driver/LIB_ST32/stm32f10x_flash.c ****   if(status == FLASH_COMPLETE)
 552              		.loc 1 634 0
 553 002c 0428     		cmp	r0, #4
 554 002e 01D0     		beq	.L48
 652:../LIB_HW/Driver/LIB_ST32/stm32f10x_flash.c **** }
 555              		.loc 1 652 0
 556 0030 BDE8F081 		pop	{r4, r5, r6, r7, r8, pc}
 557              	.L48:
 637:../LIB_HW/Driver/LIB_ST32/stm32f10x_flash.c ****     FLASH->CR |= CR_OPTPG_Set; 
 558              		.loc 1 637 0
 559 0034 2269     		ldr	r2, [r4, #16]
 639:../LIB_HW/Driver/LIB_ST32/stm32f10x_flash.c ****     OB->USER = ( OB_IWDG | OB_STOP |OB_STDBY) | (u16)0xF8; 
 560              		.loc 1 639 0
 561 0036 48F0F808 		orr	r8, r8, #248
 562 003a 47EA0807 		orr	r7, r7, r8
 563 003e 4FF47843 		mov	r3, #63488
 564 0042 C1F6FF73 		movt	r3, 8191
 637:../LIB_HW/Driver/LIB_ST32/stm32f10x_flash.c ****     FLASH->CR |= CR_OPTPG_Set; 
 565              		.loc 1 637 0
 566 0046 42F01002 		orr	r2, r2, #16
 639:../LIB_HW/Driver/LIB_ST32/stm32f10x_flash.c ****     OB->USER = ( OB_IWDG | OB_STOP |OB_STDBY) | (u16)0xF8; 
 567              		.loc 1 639 0
 568 004a 3E43     		orrs	r6, r6, r7
 637:../LIB_HW/Driver/LIB_ST32/stm32f10x_flash.c ****     FLASH->CR |= CR_OPTPG_Set; 
 569              		.loc 1 637 0
 570 004c 2261     		str	r2, [r4, #16]
 642:../LIB_HW/Driver/LIB_ST32/stm32f10x_flash.c ****     status = FLASH_WaitForLastOperation(ProgramTimeout);
 571              		.loc 1 642 0
 572 004e 0F20     		movs	r0, #15
 573              	.LVL37:
 639:../LIB_HW/Driver/LIB_ST32/stm32f10x_flash.c ****     OB->USER = ( OB_IWDG | OB_STOP |OB_STDBY) | (u16)0xF8; 
 574              		.loc 1 639 0
 575 0050 5E80     		strh	r6, [r3, #2]	@ movhi
 642:../LIB_HW/Driver/LIB_ST32/stm32f10x_flash.c ****     status = FLASH_WaitForLastOperation(ProgramTimeout);
 576              		.loc 1 642 0
 577 0052 A847     		blx	r5
 578              	.LVL38:
 644:../LIB_HW/Driver/LIB_ST32/stm32f10x_flash.c ****     if(status != FLASH_BUSY)
 579              		.loc 1 644 0
 580 0054 0128     		cmp	r0, #1
 647:../LIB_HW/Driver/LIB_ST32/stm32f10x_flash.c ****       FLASH->CR &= CR_OPTPG_Reset;
 581              		.loc 1 647 0
 582 0056 1FBF     		itttt	ne
 583 0058 2269     		ldrne	r2, [r4, #16]
 584 005a 41F6EF73 		movwne	r3, #8175
 585 005e 1340     		andne	r3, r2, r3
 586 0060 2361     		strne	r3, [r4, #16]
 652:../LIB_HW/Driver/LIB_ST32/stm32f10x_flash.c **** }
 587              		.loc 1 652 0
 588 0062 BDE8F081 		pop	{r4, r5, r6, r7, r8, pc}
 589              	.L50:
 590 0066 00BF     		.align	2
 591              	.L49:
 592 0068 00000000 		.word	FLASH_WaitForLastOperation
 593              		.cfi_endproc
 594              	.LFE13:
 596              		.section	.text.FLASH_ReadOutProtection,"ax",%progbits
 597              		.align	2
 598              		.global	FLASH_ReadOutProtection
 599              		.thumb
 600              		.thumb_func
 602              	FLASH_ReadOutProtection:
 603              	.LFB12:
 538:../LIB_HW/Driver/LIB_ST32/stm32f10x_flash.c **** {
 604              		.loc 1 538 0
 605              		.cfi_startproc
 606              		@ args = 0, pretend = 0, frame = 0
 607              		@ frame_needed = 0, uses_anonymous_args = 0
 608              	.LVL39:
 609 0000 70B5     		push	{r4, r5, r6, lr}
 610              	.LCFI3:
 611              		.cfi_def_cfa_offset 16
 612              		.cfi_offset 4, -16
 613              		.cfi_offset 5, -12
 614              		.cfi_offset 6, -8
 615              		.cfi_offset 14, -4
 538:../LIB_HW/Driver/LIB_ST32/stm32f10x_flash.c **** {
 616              		.loc 1 538 0
 617 0002 0646     		mov	r6, r0
 544:../LIB_HW/Driver/LIB_ST32/stm32f10x_flash.c ****   status = FLASH_WaitForLastOperation(EraseTimeout);
 618              		.loc 1 544 0
 619 0004 264C     		ldr	r4, .L64
 620 0006 40F6FF70 		movw	r0, #4095
 621              	.LVL40:
 622 000a A047     		blx	r4
 623              	.LVL41:
 546:../LIB_HW/Driver/LIB_ST32/stm32f10x_flash.c ****   if(status == FLASH_COMPLETE)
 624              		.loc 1 546 0
 625 000c 0428     		cmp	r0, #4
 626 000e 00D0     		beq	.L61
 595:../LIB_HW/Driver/LIB_ST32/stm32f10x_flash.c **** }
 627              		.loc 1 595 0
 628 0010 70BD     		pop	{r4, r5, r6, pc}
 629              	.L61:
 549:../LIB_HW/Driver/LIB_ST32/stm32f10x_flash.c ****     FLASH->OPTKEYR = FLASH_KEY1;
 630              		.loc 1 549 0
 631 0012 4FF40055 		mov	r5, #8192
 632 0016 40F22312 		movw	r2, #291
 550:../LIB_HW/Driver/LIB_ST32/stm32f10x_flash.c ****     FLASH->OPTKEYR = FLASH_KEY2;
 633              		.loc 1 550 0
 634 001a 48F6AB13 		movw	r3, #35243
 549:../LIB_HW/Driver/LIB_ST32/stm32f10x_flash.c ****     FLASH->OPTKEYR = FLASH_KEY1;
 635              		.loc 1 549 0
 636 001e C4F20205 		movt	r5, 16386
 637 0022 C4F26752 		movt	r2, 17767
 550:../LIB_HW/Driver/LIB_ST32/stm32f10x_flash.c ****     FLASH->OPTKEYR = FLASH_KEY2;
 638              		.loc 1 550 0
 639 0026 CCF6EF53 		movt	r3, 52719
 549:../LIB_HW/Driver/LIB_ST32/stm32f10x_flash.c ****     FLASH->OPTKEYR = FLASH_KEY1;
 640              		.loc 1 549 0
 641 002a AA60     		str	r2, [r5, #8]
 550:../LIB_HW/Driver/LIB_ST32/stm32f10x_flash.c ****     FLASH->OPTKEYR = FLASH_KEY2;
 642              		.loc 1 550 0
 643 002c AB60     		str	r3, [r5, #8]
 552:../LIB_HW/Driver/LIB_ST32/stm32f10x_flash.c ****     FLASH->CR |= CR_OPTER_Set;
 644              		.loc 1 552 0
 645 002e 2B69     		ldr	r3, [r5, #16]
 556:../LIB_HW/Driver/LIB_ST32/stm32f10x_flash.c ****     status = FLASH_WaitForLastOperation(EraseTimeout);
 646              		.loc 1 556 0
 647 0030 40F6FF70 		movw	r0, #4095
 648              	.LVL42:
 552:../LIB_HW/Driver/LIB_ST32/stm32f10x_flash.c ****     FLASH->CR |= CR_OPTER_Set;
 649              		.loc 1 552 0
 650 0034 43F02003 		orr	r3, r3, #32
 651 0038 2B61     		str	r3, [r5, #16]
 553:../LIB_HW/Driver/LIB_ST32/stm32f10x_flash.c ****     FLASH->CR |= CR_STRT_Set;
 652              		.loc 1 553 0
 653 003a 2B69     		ldr	r3, [r5, #16]
 654 003c 43F04003 		orr	r3, r3, #64
 655 0040 2B61     		str	r3, [r5, #16]
 556:../LIB_HW/Driver/LIB_ST32/stm32f10x_flash.c ****     status = FLASH_WaitForLastOperation(EraseTimeout);
 656              		.loc 1 556 0
 657 0042 A047     		blx	r4
 658              	.LVL43:
 558:../LIB_HW/Driver/LIB_ST32/stm32f10x_flash.c ****     if(status == FLASH_COMPLETE)
 659              		.loc 1 558 0
 660 0044 0428     		cmp	r0, #4
 661 0046 07D0     		beq	.L62
 586:../LIB_HW/Driver/LIB_ST32/stm32f10x_flash.c ****       if(status != FLASH_BUSY)
 662              		.loc 1 586 0
 663 0048 0128     		cmp	r0, #1
 664 004a 27D0     		beq	.L57
 589:../LIB_HW/Driver/LIB_ST32/stm32f10x_flash.c ****         FLASH->CR &= CR_OPTER_Reset;
 665              		.loc 1 589 0
 666 004c 2A69     		ldr	r2, [r5, #16]
 667 004e 41F6DF73 		movw	r3, #8159
 668 0052 1340     		ands	r3, r3, r2
 669 0054 2B61     		str	r3, [r5, #16]
 595:../LIB_HW/Driver/LIB_ST32/stm32f10x_flash.c **** }
 670              		.loc 1 595 0
 671 0056 70BD     		pop	{r4, r5, r6, pc}
 672              	.L62:
 561:../LIB_HW/Driver/LIB_ST32/stm32f10x_flash.c ****       FLASH->CR &= CR_OPTER_Reset;
 673              		.loc 1 561 0
 674 0058 2A69     		ldr	r2, [r5, #16]
 675 005a 41F6DF73 		movw	r3, #8159
 676 005e 1340     		ands	r3, r3, r2
 677 0060 2B61     		str	r3, [r5, #16]
 564:../LIB_HW/Driver/LIB_ST32/stm32f10x_flash.c ****       FLASH->CR |= CR_OPTPG_Set; 
 678              		.loc 1 564 0
 679 0062 2B69     		ldr	r3, [r5, #16]
 680 0064 43F01003 		orr	r3, r3, #16
 681 0068 2B61     		str	r3, [r5, #16]
 568:../LIB_HW/Driver/LIB_ST32/stm32f10x_flash.c ****         OB->RDP = 0x00;
 682              		.loc 1 568 0
 683 006a 4FF47843 		mov	r3, #63488
 684 006e C1F6FF73 		movt	r3, 8191
 566:../LIB_HW/Driver/LIB_ST32/stm32f10x_flash.c ****       if(NewState != DISABLE)
 685              		.loc 1 566 0
 686 0072 86B9     		cbnz	r6, .L63
 572:../LIB_HW/Driver/LIB_ST32/stm32f10x_flash.c ****         OB->RDP = RDP_Key;  
 687              		.loc 1 572 0
 688 0074 A522     		movs	r2, #165
 689 0076 1A80     		strh	r2, [r3, #0]	@ movhi
 690              	.L55:
 576:../LIB_HW/Driver/LIB_ST32/stm32f10x_flash.c ****       status = FLASH_WaitForLastOperation(EraseTimeout); 
 691              		.loc 1 576 0
 692 0078 40F6FF70 		movw	r0, #4095
 693              	.LVL44:
 694 007c A047     		blx	r4
 695              	.LVL45:
 578:../LIB_HW/Driver/LIB_ST32/stm32f10x_flash.c ****       if(status != FLASH_BUSY)
 696              		.loc 1 578 0
 697 007e 0128     		cmp	r0, #1
 698 0080 0CD0     		beq	.L57
 581:../LIB_HW/Driver/LIB_ST32/stm32f10x_flash.c ****         FLASH->CR &= CR_OPTPG_Reset;
 699              		.loc 1 581 0
 700 0082 4FF40053 		mov	r3, #8192
 701 0086 C4F20203 		movt	r3, 16386
 702 008a 1969     		ldr	r1, [r3, #16]
 703 008c 41F6EF72 		movw	r2, #8175
 704 0090 0A40     		ands	r2, r2, r1
 705 0092 1A61     		str	r2, [r3, #16]
 706 0094 70BD     		pop	{r4, r5, r6, pc}
 707              	.L63:
 568:../LIB_HW/Driver/LIB_ST32/stm32f10x_flash.c ****         OB->RDP = 0x00;
 708              		.loc 1 568 0
 709 0096 0022     		movs	r2, #0
 710 0098 1A80     		strh	r2, [r3, #0]	@ movhi
 711 009a EDE7     		b	.L55
 712              	.LVL46:
 713              	.L57:
 538:../LIB_HW/Driver/LIB_ST32/stm32f10x_flash.c **** {
 714              		.loc 1 538 0
 715 009c 0120     		movs	r0, #1
 716 009e 70BD     		pop	{r4, r5, r6, pc}
 717              	.L65:
 718              		.align	2
 719              	.L64:
 720 00a0 00000000 		.word	FLASH_WaitForLastOperation
 721              		.cfi_endproc
 722              	.LFE12:
 724              		.section	.text.FLASH_EnableWriteProtection,"ax",%progbits
 725              		.align	2
 726              		.global	FLASH_EnableWriteProtection
 727              		.thumb
 728              		.thumb_func
 730              	FLASH_EnableWriteProtection:
 731              	.LFB11:
 459:../LIB_HW/Driver/LIB_ST32/stm32f10x_flash.c **** {
 732              		.loc 1 459 0
 733              		.cfi_startproc
 734              		@ args = 0, pretend = 0, frame = 0
 735              		@ frame_needed = 0, uses_anonymous_args = 0
 736              	.LVL47:
 737 0000 38B5     		push	{r3, r4, r5, lr}
 738              	.LCFI4:
 739              		.cfi_def_cfa_offset 16
 740              		.cfi_offset 3, -16
 741              		.cfi_offset 4, -12
 742              		.cfi_offset 5, -8
 743              		.cfi_offset 14, -4
 459:../LIB_HW/Driver/LIB_ST32/stm32f10x_flash.c **** {
 744              		.loc 1 459 0
 745 0002 0546     		mov	r5, r0
 746              	.LVL48:
 474:../LIB_HW/Driver/LIB_ST32/stm32f10x_flash.c ****   status = FLASH_WaitForLastOperation(ProgramTimeout);
 747              		.loc 1 474 0
 748 0004 354C     		ldr	r4, .L89
 749 0006 0F20     		movs	r0, #15
 750              	.LVL49:
 751 0008 A047     		blx	r4
 752              	.LVL50:
 476:../LIB_HW/Driver/LIB_ST32/stm32f10x_flash.c ****   if(status == FLASH_COMPLETE)
 753              		.loc 1 476 0
 754 000a 0428     		cmp	r0, #4
 755 000c 00D0     		beq	.L85
 756              	.LVL51:
 757              	.L67:
 522:../LIB_HW/Driver/LIB_ST32/stm32f10x_flash.c **** }
 758              		.loc 1 522 0
 759 000e 38BD     		pop	{r3, r4, r5, pc}
 760              	.LVL52:
 761              	.L85:
 479:../LIB_HW/Driver/LIB_ST32/stm32f10x_flash.c ****     FLASH->OPTKEYR = FLASH_KEY1;
 762              		.loc 1 479 0
 763 0010 4FF40053 		mov	r3, #8192
 764 0014 40F22311 		movw	r1, #291
 480:../LIB_HW/Driver/LIB_ST32/stm32f10x_flash.c ****     FLASH->OPTKEYR = FLASH_KEY2;
 765              		.loc 1 480 0
 766 0018 48F6AB12 		movw	r2, #35243
 479:../LIB_HW/Driver/LIB_ST32/stm32f10x_flash.c ****     FLASH->OPTKEYR = FLASH_KEY1;
 767              		.loc 1 479 0
 768 001c C4F20203 		movt	r3, 16386
 769 0020 C4F26751 		movt	r1, 17767
 480:../LIB_HW/Driver/LIB_ST32/stm32f10x_flash.c ****     FLASH->OPTKEYR = FLASH_KEY2;
 770              		.loc 1 480 0
 771 0024 CCF6EF52 		movt	r2, 52719
 479:../LIB_HW/Driver/LIB_ST32/stm32f10x_flash.c ****     FLASH->OPTKEYR = FLASH_KEY1;
 772              		.loc 1 479 0
 773 0028 9960     		str	r1, [r3, #8]
 480:../LIB_HW/Driver/LIB_ST32/stm32f10x_flash.c ****     FLASH->OPTKEYR = FLASH_KEY2;
 774              		.loc 1 480 0
 775 002a 9A60     		str	r2, [r3, #8]
 481:../LIB_HW/Driver/LIB_ST32/stm32f10x_flash.c ****     FLASH->CR |= CR_OPTPG_Set;
 776              		.loc 1 481 0
 777 002c 1969     		ldr	r1, [r3, #16]
 467:../LIB_HW/Driver/LIB_ST32/stm32f10x_flash.c ****   FLASH_Pages = (u32)(~FLASH_Pages);
 778              		.loc 1 467 0
 779 002e ED43     		mvns	r5, r5
 780              	.LVL53:
 481:../LIB_HW/Driver/LIB_ST32/stm32f10x_flash.c ****     FLASH->CR |= CR_OPTPG_Set;
 781              		.loc 1 481 0
 782 0030 41F01001 		orr	r1, r1, #16
 468:../LIB_HW/Driver/LIB_ST32/stm32f10x_flash.c ****   WRP0_Data = (vu16)(FLASH_Pages & WRP0_Mask);
 783              		.loc 1 468 0
 784 0034 EAB2     		uxtb	r2, r5
 481:../LIB_HW/Driver/LIB_ST32/stm32f10x_flash.c ****     FLASH->CR |= CR_OPTPG_Set;
 785              		.loc 1 481 0
 786 0036 1961     		str	r1, [r3, #16]
 483:../LIB_HW/Driver/LIB_ST32/stm32f10x_flash.c ****     if(WRP0_Data != 0xFF)
 787              		.loc 1 483 0
 788 0038 0123     		movs	r3, #1
 789 003a FF2A     		cmp	r2, #255
 790 003c 09D0     		beq	.L68
 485:../LIB_HW/Driver/LIB_ST32/stm32f10x_flash.c ****       OB->WRP0 = WRP0_Data;
 791              		.loc 1 485 0
 792 003e 4FF47843 		mov	r3, #63488
 793 0042 C1F6FF73 		movt	r3, 8191
 794 0046 1A81     		strh	r2, [r3, #8]	@ movhi
 488:../LIB_HW/Driver/LIB_ST32/stm32f10x_flash.c ****       status = FLASH_WaitForLastOperation(ProgramTimeout);
 795              		.loc 1 488 0
 796 0048 0F20     		movs	r0, #15
 797              	.LVL54:
 798 004a A047     		blx	r4
 799              	.LVL55:
 800 004c 011F     		subs	r1, r0, #4
 801 004e 4B42     		rsbs	r3, r1, #0
 802 0050 4B41     		adcs	r3, r3, r1
 803              	.LVL56:
 804              	.L68:
 469:../LIB_HW/Driver/LIB_ST32/stm32f10x_flash.c ****   WRP1_Data = (vu16)((FLASH_Pages & WRP1_Mask) >> 8);
 805              		.loc 1 469 0
 806 0052 C5F30722 		ubfx	r2, r5, #8, #8
 807              	.LVL57:
 490:../LIB_HW/Driver/LIB_ST32/stm32f10x_flash.c ****     if((status == FLASH_COMPLETE) && (WRP1_Data != 0xFF))
 808              		.loc 1 490 0
 809 0056 FF2A     		cmp	r2, #255
 810 0058 0CBF     		ite	eq
 811 005a 0021     		moveq	r1, #0
 812 005c 03F00101 		andne	r1, r3, #1
 813 0060 81BB     		cbnz	r1, .L86
 814              	.LVL58:
 815              	.L69:
 470:../LIB_HW/Driver/LIB_ST32/stm32f10x_flash.c ****   WRP2_Data = (vu16)((FLASH_Pages & WRP2_Mask) >> 16);
 816              		.loc 1 470 0
 817 0062 C5F30742 		ubfx	r2, r5, #16, #8
 818              	.LVL59:
 498:../LIB_HW/Driver/LIB_ST32/stm32f10x_flash.c ****     if((status == FLASH_COMPLETE) && (WRP2_Data != 0xFF))
 819              		.loc 1 498 0
 820 0066 FF2A     		cmp	r2, #255
 821 0068 0CBF     		ite	eq
 822 006a 0021     		moveq	r1, #0
 823 006c 03F00101 		andne	r1, r3, #1
 824 0070 D1B9     		cbnz	r1, .L87
 825              	.LVL60:
 826              	.L70:
 471:../LIB_HW/Driver/LIB_ST32/stm32f10x_flash.c ****   WRP3_Data = (vu16)((FLASH_Pages & WRP3_Mask) >> 24);
 827              		.loc 1 471 0
 828 0072 2D0E     		lsrs	r5, r5, #24
 829              	.LVL61:
 506:../LIB_HW/Driver/LIB_ST32/stm32f10x_flash.c ****     if((status == FLASH_COMPLETE)&& (WRP3_Data != 0xFF))
 830              		.loc 1 506 0
 831 0074 FF2D     		cmp	r5, #255
 832 0076 0CBF     		ite	eq
 833 0078 0023     		moveq	r3, #0
 834 007a 03F00103 		andne	r3, r3, #1
 835 007e 5BB9     		cbnz	r3, .L88
 836              	.LVL62:
 837              	.L71:
 514:../LIB_HW/Driver/LIB_ST32/stm32f10x_flash.c ****     if(status != FLASH_BUSY)
 838              		.loc 1 514 0
 839 0080 0128     		cmp	r0, #1
 840 0082 C4D0     		beq	.L67
 517:../LIB_HW/Driver/LIB_ST32/stm32f10x_flash.c ****       FLASH->CR &= CR_OPTPG_Reset;
 841              		.loc 1 517 0
 842 0084 4FF40053 		mov	r3, #8192
 843 0088 C4F20203 		movt	r3, 16386
 844 008c 1969     		ldr	r1, [r3, #16]
 845 008e 41F6EF72 		movw	r2, #8175
 846 0092 0A40     		ands	r2, r2, r1
 847 0094 1A61     		str	r2, [r3, #16]
 522:../LIB_HW/Driver/LIB_ST32/stm32f10x_flash.c **** }
 848              		.loc 1 522 0
 849 0096 38BD     		pop	{r3, r4, r5, pc}
 850              	.L88:
 508:../LIB_HW/Driver/LIB_ST32/stm32f10x_flash.c ****       OB->WRP3 = WRP3_Data;
 851              		.loc 1 508 0
 852 0098 4FF47843 		mov	r3, #63488
 853 009c C1F6FF73 		movt	r3, 8191
 854 00a0 DD81     		strh	r5, [r3, #14]	@ movhi
 511:../LIB_HW/Driver/LIB_ST32/stm32f10x_flash.c ****       status = FLASH_WaitForLastOperation(ProgramTimeout);
 855              		.loc 1 511 0
 856 00a2 0F20     		movs	r0, #15
 857              	.LVL63:
 858 00a4 A047     		blx	r4
 859              	.LVL64:
 860 00a6 EBE7     		b	.L71
 861              	.L87:
 500:../LIB_HW/Driver/LIB_ST32/stm32f10x_flash.c ****       OB->WRP2 = WRP2_Data;
 862              		.loc 1 500 0
 863 00a8 4FF47843 		mov	r3, #63488
 864 00ac C1F6FF73 		movt	r3, 8191
 865 00b0 9A81     		strh	r2, [r3, #12]	@ movhi
 503:../LIB_HW/Driver/LIB_ST32/stm32f10x_flash.c ****       status = FLASH_WaitForLastOperation(ProgramTimeout);
 866              		.loc 1 503 0
 867 00b2 0F20     		movs	r0, #15
 868              	.LVL65:
 869 00b4 A047     		blx	r4
 870              	.LVL66:
 871 00b6 B0F1040C 		subs	ip, r0, #4
 872 00ba DCF10003 		rsbs	r3, ip, #0
 873 00be 53EB0C03 		adcs	r3, r3, ip
 874 00c2 D6E7     		b	.L70
 875              	.L86:
 492:../LIB_HW/Driver/LIB_ST32/stm32f10x_flash.c ****       OB->WRP1 = WRP1_Data;
 876              		.loc 1 492 0
 877 00c4 4FF47843 		mov	r3, #63488
 878 00c8 C1F6FF73 		movt	r3, 8191
 879 00cc 5A81     		strh	r2, [r3, #10]	@ movhi
 495:../LIB_HW/Driver/LIB_ST32/stm32f10x_flash.c ****       status = FLASH_WaitForLastOperation(ProgramTimeout);
 880              		.loc 1 495 0
 881 00ce 0F20     		movs	r0, #15
 882              	.LVL67:
 883 00d0 A047     		blx	r4
 884              	.LVL68:
 885 00d2 021F     		subs	r2, r0, #4
 886 00d4 5342     		rsbs	r3, r2, #0
 887 00d6 5341     		adcs	r3, r3, r2
 888 00d8 C3E7     		b	.L69
 889              	.L90:
 890 00da 00BF     		.align	2
 891              	.L89:
 892 00dc 00000000 		.word	FLASH_WaitForLastOperation
 893              		.cfi_endproc
 894              	.LFE11:
 896              		.section	.text.FLASH_ProgramOptionByteData,"ax",%progbits
 897              		.align	2
 898              		.global	FLASH_ProgramOptionByteData
 899              		.thumb
 900              		.thumb_func
 902              	FLASH_ProgramOptionByteData:
 903              	.LFB10:
 410:../LIB_HW/Driver/LIB_ST32/stm32f10x_flash.c **** {
 904              		.loc 1 410 0
 905              		.cfi_startproc
 906              		@ args = 0, pretend = 0, frame = 0
 907              		@ frame_needed = 0, uses_anonymous_args = 0
 908              	.LVL69:
 909 0000 F8B5     		push	{r3, r4, r5, r6, r7, lr}
 910              	.LCFI5:
 911              		.cfi_def_cfa_offset 24
 912              		.cfi_offset 3, -24
 913              		.cfi_offset 4, -20
 914              		.cfi_offset 5, -16
 915              		.cfi_offset 6, -12
 916              		.cfi_offset 7, -8
 917              		.cfi_offset 14, -4
 410:../LIB_HW/Driver/LIB_ST32/stm32f10x_flash.c **** {
 918              		.loc 1 410 0
 919 0002 0646     		mov	r6, r0
 416:../LIB_HW/Driver/LIB_ST32/stm32f10x_flash.c ****   status = FLASH_WaitForLastOperation(ProgramTimeout);
 920              		.loc 1 416 0
 921 0004 114C     		ldr	r4, .L97
 922 0006 0F20     		movs	r0, #15
 923              	.LVL70:
 410:../LIB_HW/Driver/LIB_ST32/stm32f10x_flash.c **** {
 924              		.loc 1 410 0
 925 0008 0F46     		mov	r7, r1
 416:../LIB_HW/Driver/LIB_ST32/stm32f10x_flash.c ****   status = FLASH_WaitForLastOperation(ProgramTimeout);
 926              		.loc 1 416 0
 927 000a A047     		blx	r4
 928              	.LVL71:
 418:../LIB_HW/Driver/LIB_ST32/stm32f10x_flash.c ****   if(status == FLASH_COMPLETE)
 929              		.loc 1 418 0
 930 000c 0428     		cmp	r0, #4
 931 000e 00D0     		beq	.L96
 439:../LIB_HW/Driver/LIB_ST32/stm32f10x_flash.c **** }
 932              		.loc 1 439 0
 933 0010 F8BD     		pop	{r3, r4, r5, r6, r7, pc}
 934              	.L96:
 421:../LIB_HW/Driver/LIB_ST32/stm32f10x_flash.c ****     FLASH->OPTKEYR = FLASH_KEY1;
 935              		.loc 1 421 0
 936 0012 4FF40055 		mov	r5, #8192
 937 0016 40F22312 		movw	r2, #291
 422:../LIB_HW/Driver/LIB_ST32/stm32f10x_flash.c ****     FLASH->OPTKEYR = FLASH_KEY2;
 938              		.loc 1 422 0
 939 001a 48F6AB13 		movw	r3, #35243
 421:../LIB_HW/Driver/LIB_ST32/stm32f10x_flash.c ****     FLASH->OPTKEYR = FLASH_KEY1;
 940              		.loc 1 421 0
 941 001e C4F20205 		movt	r5, 16386
 942 0022 C4F26752 		movt	r2, 17767
 422:../LIB_HW/Driver/LIB_ST32/stm32f10x_flash.c ****     FLASH->OPTKEYR = FLASH_KEY2;
 943              		.loc 1 422 0
 944 0026 CCF6EF53 		movt	r3, 52719
 421:../LIB_HW/Driver/LIB_ST32/stm32f10x_flash.c ****     FLASH->OPTKEYR = FLASH_KEY1;
 945              		.loc 1 421 0
 946 002a AA60     		str	r2, [r5, #8]
 422:../LIB_HW/Driver/LIB_ST32/stm32f10x_flash.c ****     FLASH->OPTKEYR = FLASH_KEY2;
 947              		.loc 1 422 0
 948 002c AB60     		str	r3, [r5, #8]
 425:../LIB_HW/Driver/LIB_ST32/stm32f10x_flash.c ****     FLASH->CR |= CR_OPTPG_Set; 
 949              		.loc 1 425 0
 950 002e 2B69     		ldr	r3, [r5, #16]
 429:../LIB_HW/Driver/LIB_ST32/stm32f10x_flash.c ****     status = FLASH_WaitForLastOperation(ProgramTimeout);
 951              		.loc 1 429 0
 952 0030 0F20     		movs	r0, #15
 953              	.LVL72:
 425:../LIB_HW/Driver/LIB_ST32/stm32f10x_flash.c ****     FLASH->CR |= CR_OPTPG_Set; 
 954              		.loc 1 425 0
 955 0032 43F01003 		orr	r3, r3, #16
 956 0036 2B61     		str	r3, [r5, #16]
 426:../LIB_HW/Driver/LIB_ST32/stm32f10x_flash.c ****     *(vu16*)Address = Data;
 957              		.loc 1 426 0
 958 0038 3780     		strh	r7, [r6, #0]	@ movhi
 429:../LIB_HW/Driver/LIB_ST32/stm32f10x_flash.c ****     status = FLASH_WaitForLastOperation(ProgramTimeout);
 959              		.loc 1 429 0
 960 003a A047     		blx	r4
 961              	.LVL73:
 431:../LIB_HW/Driver/LIB_ST32/stm32f10x_flash.c ****     if(status != FLASH_BUSY)
 962              		.loc 1 431 0
 963 003c 0128     		cmp	r0, #1
 434:../LIB_HW/Driver/LIB_ST32/stm32f10x_flash.c ****       FLASH->CR &= CR_OPTPG_Reset;
 964              		.loc 1 434 0
 965 003e 1FBF     		itttt	ne
 966 0040 2A69     		ldrne	r2, [r5, #16]
 967 0042 41F6EF73 		movwne	r3, #8175
 968 0046 1340     		andne	r3, r2, r3
 969 0048 2B61     		strne	r3, [r5, #16]
 439:../LIB_HW/Driver/LIB_ST32/stm32f10x_flash.c **** }
 970              		.loc 1 439 0
 971 004a F8BD     		pop	{r3, r4, r5, r6, r7, pc}
 972              	.L98:
 973              		.align	2
 974              	.L97:
 975 004c 00000000 		.word	FLASH_WaitForLastOperation
 976              		.cfi_endproc
 977              	.LFE10:
 979              		.section	.text.FLASH_ProgramHalfWord,"ax",%progbits
 980              		.align	2
 981              		.global	FLASH_ProgramHalfWord
 982              		.thumb
 983              		.thumb_func
 985              	FLASH_ProgramHalfWord:
 986              	.LFB9:
 370:../LIB_HW/Driver/LIB_ST32/stm32f10x_flash.c **** {
 987              		.loc 1 370 0
 988              		.cfi_startproc
 989              		@ args = 0, pretend = 0, frame = 0
 990              		@ frame_needed = 0, uses_anonymous_args = 0
 991              	.LVL74:
 992 0000 F8B5     		push	{r3, r4, r5, r6, r7, lr}
 993              	.LCFI6:
 994              		.cfi_def_cfa_offset 24
 995              		.cfi_offset 3, -24
 996              		.cfi_offset 4, -20
 997              		.cfi_offset 5, -16
 998              		.cfi_offset 6, -12
 999              		.cfi_offset 7, -8
 1000              		.cfi_offset 14, -4
 370:../LIB_HW/Driver/LIB_ST32/stm32f10x_flash.c **** {
 1001              		.loc 1 370 0
 1002 0002 0546     		mov	r5, r0
 377:../LIB_HW/Driver/LIB_ST32/stm32f10x_flash.c ****   status = FLASH_WaitForLastOperation(ProgramTimeout);
 1003              		.loc 1 377 0
 1004 0004 0C4C     		ldr	r4, .L105
 1005 0006 0F20     		movs	r0, #15
 1006              	.LVL75:
 370:../LIB_HW/Driver/LIB_ST32/stm32f10x_flash.c **** {
 1007              		.loc 1 370 0
 1008 0008 0E46     		mov	r6, r1
 377:../LIB_HW/Driver/LIB_ST32/stm32f10x_flash.c ****   status = FLASH_WaitForLastOperation(ProgramTimeout);
 1009              		.loc 1 377 0
 1010 000a A047     		blx	r4
 1011              	.LVL76:
 379:../LIB_HW/Driver/LIB_ST32/stm32f10x_flash.c ****   if(status == FLASH_COMPLETE)
 1012              		.loc 1 379 0
 1013 000c 0428     		cmp	r0, #4
 1014 000e 00D0     		beq	.L104
 396:../LIB_HW/Driver/LIB_ST32/stm32f10x_flash.c **** }
 1015              		.loc 1 396 0
 1016 0010 F8BD     		pop	{r3, r4, r5, r6, r7, pc}
 1017              	.L104:
 382:../LIB_HW/Driver/LIB_ST32/stm32f10x_flash.c ****     FLASH->CR |= CR_PG_Set;
 1018              		.loc 1 382 0
 1019 0012 4FF40057 		mov	r7, #8192
 1020 0016 C4F20207 		movt	r7, 16386
 1021 001a 3B69     		ldr	r3, [r7, #16]
 386:../LIB_HW/Driver/LIB_ST32/stm32f10x_flash.c ****     status = FLASH_WaitForLastOperation(ProgramTimeout);
 1022              		.loc 1 386 0
 1023 001c 0F20     		movs	r0, #15
 1024              	.LVL77:
 382:../LIB_HW/Driver/LIB_ST32/stm32f10x_flash.c ****     FLASH->CR |= CR_PG_Set;
 1025              		.loc 1 382 0
 1026 001e 43F00103 		orr	r3, r3, #1
 1027 0022 3B61     		str	r3, [r7, #16]
 384:../LIB_HW/Driver/LIB_ST32/stm32f10x_flash.c ****     *(vu16*)Address = Data;
 1028              		.loc 1 384 0
 1029 0024 2E80     		strh	r6, [r5, #0]	@ movhi
 386:../LIB_HW/Driver/LIB_ST32/stm32f10x_flash.c ****     status = FLASH_WaitForLastOperation(ProgramTimeout);
 1030              		.loc 1 386 0
 1031 0026 A047     		blx	r4
 1032              	.LVL78:
 388:../LIB_HW/Driver/LIB_ST32/stm32f10x_flash.c ****     if(status != FLASH_BUSY)
 1033              		.loc 1 388 0
 1034 0028 0128     		cmp	r0, #1
 391:../LIB_HW/Driver/LIB_ST32/stm32f10x_flash.c ****       FLASH->CR &= CR_PG_Reset;
 1035              		.loc 1 391 0
 1036 002a 1FBF     		itttt	ne
 1037 002c 3A69     		ldrne	r2, [r7, #16]
 1038 002e 41F6FE73 		movwne	r3, #8190
 1039 0032 1340     		andne	r3, r2, r3
 1040 0034 3B61     		strne	r3, [r7, #16]
 396:../LIB_HW/Driver/LIB_ST32/stm32f10x_flash.c **** }
 1041              		.loc 1 396 0
 1042 0036 F8BD     		pop	{r3, r4, r5, r6, r7, pc}
 1043              	.L106:
 1044              		.align	2
 1045              	.L105:
 1046 0038 00000000 		.word	FLASH_WaitForLastOperation
 1047              		.cfi_endproc
 1048              	.LFE9:
 1050              		.section	.text.FLASH_ProgramWord,"ax",%progbits
 1051              		.align	2
 1052              		.global	FLASH_ProgramWord
 1053              		.thumb
 1054              		.thumb_func
 1056              	FLASH_ProgramWord:
 1057              	.LFB8:
 311:../LIB_HW/Driver/LIB_ST32/stm32f10x_flash.c **** {
 1058              		.loc 1 311 0
 1059              		.cfi_startproc
 1060              		@ args = 0, pretend = 0, frame = 0
 1061              		@ frame_needed = 0, uses_anonymous_args = 0
 1062              	.LVL79:
 1063 0000 F8B5     		push	{r3, r4, r5, r6, r7, lr}
 1064              	.LCFI7:
 1065              		.cfi_def_cfa_offset 24
 1066              		.cfi_offset 3, -24
 1067              		.cfi_offset 4, -20
 1068              		.cfi_offset 5, -16
 1069              		.cfi_offset 6, -12
 1070              		.cfi_offset 7, -8
 1071              		.cfi_offset 14, -4
 311:../LIB_HW/Driver/LIB_ST32/stm32f10x_flash.c **** {
 1072              		.loc 1 311 0
 1073 0002 0546     		mov	r5, r0
 318:../LIB_HW/Driver/LIB_ST32/stm32f10x_flash.c ****   status = FLASH_WaitForLastOperation(ProgramTimeout);
 1074              		.loc 1 318 0
 1075 0004 114C     		ldr	r4, .L120
 1076 0006 0F20     		movs	r0, #15
 1077              	.LVL80:
 311:../LIB_HW/Driver/LIB_ST32/stm32f10x_flash.c **** {
 1078              		.loc 1 311 0
 1079 0008 0E46     		mov	r6, r1
 318:../LIB_HW/Driver/LIB_ST32/stm32f10x_flash.c ****   status = FLASH_WaitForLastOperation(ProgramTimeout);
 1080              		.loc 1 318 0
 1081 000a A047     		blx	r4
 1082              	.LVL81:
 320:../LIB_HW/Driver/LIB_ST32/stm32f10x_flash.c ****   if(status == FLASH_COMPLETE)
 1083              		.loc 1 320 0
 1084 000c 0428     		cmp	r0, #4
 1085 000e 00D0     		beq	.L117
 357:../LIB_HW/Driver/LIB_ST32/stm32f10x_flash.c **** }
 1086              		.loc 1 357 0
 1087 0010 F8BD     		pop	{r3, r4, r5, r6, r7, pc}
 1088              	.L117:
 324:../LIB_HW/Driver/LIB_ST32/stm32f10x_flash.c ****     FLASH->CR |= CR_PG_Set;
 1089              		.loc 1 324 0
 1090 0012 4FF40057 		mov	r7, #8192
 1091 0016 C4F20207 		movt	r7, 16386
 1092 001a 3A69     		ldr	r2, [r7, #16]
 326:../LIB_HW/Driver/LIB_ST32/stm32f10x_flash.c ****     *(vu16*)Address = (u16)Data;
 1093              		.loc 1 326 0
 1094 001c B3B2     		uxth	r3, r6
 324:../LIB_HW/Driver/LIB_ST32/stm32f10x_flash.c ****     FLASH->CR |= CR_PG_Set;
 1095              		.loc 1 324 0
 1096 001e 42F00102 		orr	r2, r2, #1
 1097 0022 3A61     		str	r2, [r7, #16]
 329:../LIB_HW/Driver/LIB_ST32/stm32f10x_flash.c ****     status = FLASH_WaitForLastOperation(ProgramTimeout);
 1098              		.loc 1 329 0
 1099 0024 0F20     		movs	r0, #15
 1100              	.LVL82:
 326:../LIB_HW/Driver/LIB_ST32/stm32f10x_flash.c ****     *(vu16*)Address = (u16)Data;
 1101              		.loc 1 326 0
 1102 0026 2B80     		strh	r3, [r5, #0]	@ movhi
 329:../LIB_HW/Driver/LIB_ST32/stm32f10x_flash.c ****     status = FLASH_WaitForLastOperation(ProgramTimeout);
 1103              		.loc 1 329 0
 1104 0028 A047     		blx	r4
 1105              	.LVL83:
 331:../LIB_HW/Driver/LIB_ST32/stm32f10x_flash.c ****     if(status == FLASH_COMPLETE)
 1106              		.loc 1 331 0
 1107 002a 0428     		cmp	r0, #4
 1108 002c 09D0     		beq	.L118
 1109              	.LVL84:
 1110              	.L116:
 340:../LIB_HW/Driver/LIB_ST32/stm32f10x_flash.c ****       if(status != FLASH_BUSY)
 1111              		.loc 1 340 0
 1112 002e 0128     		cmp	r0, #1
 1113 0030 05D0     		beq	.L119
 351:../LIB_HW/Driver/LIB_ST32/stm32f10x_flash.c ****         FLASH->CR &= CR_PG_Reset;
 1114              		.loc 1 351 0
 1115 0032 3A69     		ldr	r2, [r7, #16]
 1116 0034 41F6FE73 		movw	r3, #8190
 1117 0038 1340     		ands	r3, r3, r2
 1118 003a 3B61     		str	r3, [r7, #16]
 357:../LIB_HW/Driver/LIB_ST32/stm32f10x_flash.c **** }
 1119              		.loc 1 357 0
 1120 003c F8BD     		pop	{r3, r4, r5, r6, r7, pc}
 1121              	.L119:
 311:../LIB_HW/Driver/LIB_ST32/stm32f10x_flash.c **** {
 1122              		.loc 1 311 0
 1123 003e 0120     		movs	r0, #1
 1124              	.LVL85:
 1125 0040 F8BD     		pop	{r3, r4, r5, r6, r7, pc}
 1126              	.LVL86:
 1127              	.L118:
 335:../LIB_HW/Driver/LIB_ST32/stm32f10x_flash.c ****       *(vu16*)(Address + 2) = Data >> 16;
 1128              		.loc 1 335 0
 1129 0042 360C     		lsrs	r6, r6, #16
 1130              	.LVL87:
 1131 0044 6E80     		strh	r6, [r5, #2]	@ movhi
 338:../LIB_HW/Driver/LIB_ST32/stm32f10x_flash.c ****       status = FLASH_WaitForLastOperation(ProgramTimeout);
 1132              		.loc 1 338 0
 1133 0046 0F20     		movs	r0, #15
 1134              	.LVL88:
 1135 0048 A047     		blx	r4
 1136              	.LVL89:
 1137 004a F0E7     		b	.L116
 1138              	.L121:
 1139              		.align	2
 1140              	.L120:
 1141 004c 00000000 		.word	FLASH_WaitForLastOperation
 1142              		.cfi_endproc
 1143              	.LFE8:
 1145              		.section	.text.FLASH_EraseOptionBytes,"ax",%progbits
 1146              		.align	2
 1147              		.global	FLASH_EraseOptionBytes
 1148              		.thumb
 1149              		.thumb_func
 1151              	FLASH_EraseOptionBytes:
 1152              	.LFB7:
 248:../LIB_HW/Driver/LIB_ST32/stm32f10x_flash.c **** {
 1153              		.loc 1 248 0
 1154              		.cfi_startproc
 1155              		@ args = 0, pretend = 0, frame = 0
 1156              		@ frame_needed = 0, uses_anonymous_args = 0
 1157              	.LVL90:
 1158 0000 38B5     		push	{r3, r4, r5, lr}
 1159              	.LCFI8:
 1160              		.cfi_def_cfa_offset 16
 1161              		.cfi_offset 3, -16
 1162              		.cfi_offset 4, -12
 1163              		.cfi_offset 5, -8
 1164              		.cfi_offset 14, -4
 252:../LIB_HW/Driver/LIB_ST32/stm32f10x_flash.c ****   status = FLASH_WaitForLastOperation(EraseTimeout);
 1165              		.loc 1 252 0
 1166 0002 40F6FF70 		movw	r0, #4095
 1167 0006 1E4C     		ldr	r4, .L135
 1168 0008 A047     		blx	r4
 1169              	.LVL91:
 254:../LIB_HW/Driver/LIB_ST32/stm32f10x_flash.c ****   if(status == FLASH_COMPLETE)
 1170              		.loc 1 254 0
 1171 000a 0428     		cmp	r0, #4
 1172 000c 00D0     		beq	.L132
 298:../LIB_HW/Driver/LIB_ST32/stm32f10x_flash.c **** }
 1173              		.loc 1 298 0
 1174 000e 38BD     		pop	{r3, r4, r5, pc}
 1175              	.L132:
 257:../LIB_HW/Driver/LIB_ST32/stm32f10x_flash.c ****     FLASH->OPTKEYR = FLASH_KEY1;
 1176              		.loc 1 257 0
 1177 0010 4FF40055 		mov	r5, #8192
 1178 0014 40F22312 		movw	r2, #291
 258:../LIB_HW/Driver/LIB_ST32/stm32f10x_flash.c ****     FLASH->OPTKEYR = FLASH_KEY2;
 1179              		.loc 1 258 0
 1180 0018 48F6AB13 		movw	r3, #35243
 257:../LIB_HW/Driver/LIB_ST32/stm32f10x_flash.c ****     FLASH->OPTKEYR = FLASH_KEY1;
 1181              		.loc 1 257 0
 1182 001c C4F20205 		movt	r5, 16386
 1183 0020 C4F26752 		movt	r2, 17767
 258:../LIB_HW/Driver/LIB_ST32/stm32f10x_flash.c ****     FLASH->OPTKEYR = FLASH_KEY2;
 1184              		.loc 1 258 0
 1185 0024 CCF6EF53 		movt	r3, 52719
 257:../LIB_HW/Driver/LIB_ST32/stm32f10x_flash.c ****     FLASH->OPTKEYR = FLASH_KEY1;
 1186              		.loc 1 257 0
 1187 0028 AA60     		str	r2, [r5, #8]
 258:../LIB_HW/Driver/LIB_ST32/stm32f10x_flash.c ****     FLASH->OPTKEYR = FLASH_KEY2;
 1188              		.loc 1 258 0
 1189 002a AB60     		str	r3, [r5, #8]
 261:../LIB_HW/Driver/LIB_ST32/stm32f10x_flash.c ****     FLASH->CR |= CR_OPTER_Set;
 1190              		.loc 1 261 0
 1191 002c 2B69     		ldr	r3, [r5, #16]
 265:../LIB_HW/Driver/LIB_ST32/stm32f10x_flash.c ****     status = FLASH_WaitForLastOperation(EraseTimeout);
 1192              		.loc 1 265 0
 1193 002e 40F6FF70 		movw	r0, #4095
 1194              	.LVL92:
 261:../LIB_HW/Driver/LIB_ST32/stm32f10x_flash.c ****     FLASH->CR |= CR_OPTER_Set;
 1195              		.loc 1 261 0
 1196 0032 43F02003 		orr	r3, r3, #32
 1197 0036 2B61     		str	r3, [r5, #16]
 262:../LIB_HW/Driver/LIB_ST32/stm32f10x_flash.c ****     FLASH->CR |= CR_STRT_Set;
 1198              		.loc 1 262 0
 1199 0038 2B69     		ldr	r3, [r5, #16]
 1200 003a 43F04003 		orr	r3, r3, #64
 1201 003e 2B61     		str	r3, [r5, #16]
 265:../LIB_HW/Driver/LIB_ST32/stm32f10x_flash.c ****     status = FLASH_WaitForLastOperation(EraseTimeout);
 1202              		.loc 1 265 0
 1203 0040 A047     		blx	r4
 1204              	.LVL93:
 267:../LIB_HW/Driver/LIB_ST32/stm32f10x_flash.c ****     if(status == FLASH_COMPLETE)
 1205              		.loc 1 267 0
 1206 0042 0428     		cmp	r0, #4
 1207 0044 09D0     		beq	.L133
 1208              	.LVL94:
 1209              	.L131:
 281:../LIB_HW/Driver/LIB_ST32/stm32f10x_flash.c ****       if(status != FLASH_BUSY)
 1210              		.loc 1 281 0
 1211 0046 0128     		cmp	r0, #1
 1212 0048 05D0     		beq	.L134
 292:../LIB_HW/Driver/LIB_ST32/stm32f10x_flash.c ****         FLASH->CR &= CR_OPTPG_Reset;
 1213              		.loc 1 292 0
 1214 004a 2A69     		ldr	r2, [r5, #16]
 1215 004c 41F6EF73 		movw	r3, #8175
 1216 0050 1340     		ands	r3, r3, r2
 1217 0052 2B61     		str	r3, [r5, #16]
 298:../LIB_HW/Driver/LIB_ST32/stm32f10x_flash.c **** }
 1218              		.loc 1 298 0
 1219 0054 38BD     		pop	{r3, r4, r5, pc}
 1220              	.L134:
 248:../LIB_HW/Driver/LIB_ST32/stm32f10x_flash.c **** {
 1221              		.loc 1 248 0
 1222 0056 0120     		movs	r0, #1
 1223              	.LVL95:
 1224 0058 38BD     		pop	{r3, r4, r5, pc}
 1225              	.LVL96:
 1226              	.L133:
 270:../LIB_HW/Driver/LIB_ST32/stm32f10x_flash.c ****       FLASH->CR &= CR_OPTER_Reset;
 1227              		.loc 1 270 0
 1228 005a 2A69     		ldr	r2, [r5, #16]
 1229 005c 41F6DF73 		movw	r3, #8159
 1230 0060 1340     		ands	r3, r3, r2
 1231 0062 2B61     		str	r3, [r5, #16]
 273:../LIB_HW/Driver/LIB_ST32/stm32f10x_flash.c ****       FLASH->CR |= CR_OPTPG_Set;
 1232              		.loc 1 273 0
 1233 0064 2A69     		ldr	r2, [r5, #16]
 276:../LIB_HW/Driver/LIB_ST32/stm32f10x_flash.c ****       OB->RDP= RDP_Key; 
 1234              		.loc 1 276 0
 1235 0066 4FF47843 		mov	r3, #63488
 273:../LIB_HW/Driver/LIB_ST32/stm32f10x_flash.c ****       FLASH->CR |= CR_OPTPG_Set;
 1236              		.loc 1 273 0
 1237 006a 42F01002 		orr	r2, r2, #16
 1238 006e 2A61     		str	r2, [r5, #16]
 276:../LIB_HW/Driver/LIB_ST32/stm32f10x_flash.c ****       OB->RDP= RDP_Key; 
 1239              		.loc 1 276 0
 1240 0070 C1F6FF73 		movt	r3, 8191
 1241 0074 A522     		movs	r2, #165
 279:../LIB_HW/Driver/LIB_ST32/stm32f10x_flash.c ****       status = FLASH_WaitForLastOperation(ProgramTimeout);
 1242              		.loc 1 279 0
 1243 0076 0F20     		movs	r0, #15
 1244              	.LVL97:
 276:../LIB_HW/Driver/LIB_ST32/stm32f10x_flash.c ****       OB->RDP= RDP_Key; 
 1245              		.loc 1 276 0
 1246 0078 1A80     		strh	r2, [r3, #0]	@ movhi
 279:../LIB_HW/Driver/LIB_ST32/stm32f10x_flash.c ****       status = FLASH_WaitForLastOperation(ProgramTimeout);
 1247              		.loc 1 279 0
 1248 007a A047     		blx	r4
 1249              	.LVL98:
 1250 007c E3E7     		b	.L131
 1251              	.L136:
 1252 007e 00BF     		.align	2
 1253              	.L135:
 1254 0080 00000000 		.word	FLASH_WaitForLastOperation
 1255              		.cfi_endproc
 1256              	.LFE7:
 1258              		.section	.text.FLASH_EraseAllPages,"ax",%progbits
 1259              		.align	2
 1260              		.global	FLASH_EraseAllPages
 1261              		.thumb
 1262              		.thumb_func
 1264              	FLASH_EraseAllPages:
 1265              	.LFB6:
 213:../LIB_HW/Driver/LIB_ST32/stm32f10x_flash.c **** {
 1266              		.loc 1 213 0
 1267              		.cfi_startproc
 1268              		@ args = 0, pretend = 0, frame = 0
 1269              		@ frame_needed = 0, uses_anonymous_args = 0
 1270              	.LVL99:
 1271 0000 38B5     		push	{r3, r4, r5, lr}
 1272              	.LCFI9:
 1273              		.cfi_def_cfa_offset 16
 1274              		.cfi_offset 3, -16
 1275              		.cfi_offset 4, -12
 1276              		.cfi_offset 5, -8
 1277              		.cfi_offset 14, -4
 217:../LIB_HW/Driver/LIB_ST32/stm32f10x_flash.c ****   status = FLASH_WaitForLastOperation(EraseTimeout);
 1278              		.loc 1 217 0
 1279 0002 40F6FF70 		movw	r0, #4095
 1280 0006 0E4C     		ldr	r4, .L143
 1281 0008 A047     		blx	r4
 1282              	.LVL100:
 219:../LIB_HW/Driver/LIB_ST32/stm32f10x_flash.c ****   if(status == FLASH_COMPLETE)
 1283              		.loc 1 219 0
 1284 000a 0428     		cmp	r0, #4
 1285 000c 00D0     		beq	.L142
 236:../LIB_HW/Driver/LIB_ST32/stm32f10x_flash.c **** }
 1286              		.loc 1 236 0
 1287 000e 38BD     		pop	{r3, r4, r5, pc}
 1288              	.L142:
 222:../LIB_HW/Driver/LIB_ST32/stm32f10x_flash.c ****      FLASH->CR |= CR_MER_Set;
 1289              		.loc 1 222 0
 1290 0010 4FF40055 		mov	r5, #8192
 1291 0014 C4F20205 		movt	r5, 16386
 1292 0018 2B69     		ldr	r3, [r5, #16]
 226:../LIB_HW/Driver/LIB_ST32/stm32f10x_flash.c ****     status = FLASH_WaitForLastOperation(EraseTimeout);
 1293              		.loc 1 226 0
 1294 001a 40F6FF70 		movw	r0, #4095
 1295              	.LVL101:
 222:../LIB_HW/Driver/LIB_ST32/stm32f10x_flash.c ****      FLASH->CR |= CR_MER_Set;
 1296              		.loc 1 222 0
 1297 001e 43F00403 		orr	r3, r3, #4
 1298 0022 2B61     		str	r3, [r5, #16]
 223:../LIB_HW/Driver/LIB_ST32/stm32f10x_flash.c ****      FLASH->CR |= CR_STRT_Set;
 1299              		.loc 1 223 0
 1300 0024 2B69     		ldr	r3, [r5, #16]
 1301 0026 43F04003 		orr	r3, r3, #64
 1302 002a 2B61     		str	r3, [r5, #16]
 226:../LIB_HW/Driver/LIB_ST32/stm32f10x_flash.c ****     status = FLASH_WaitForLastOperation(EraseTimeout);
 1303              		.loc 1 226 0
 1304 002c A047     		blx	r4
 1305              	.LVL102:
 228:../LIB_HW/Driver/LIB_ST32/stm32f10x_flash.c ****     if(status != FLASH_BUSY)
 1306              		.loc 1 228 0
 1307 002e 0128     		cmp	r0, #1
 231:../LIB_HW/Driver/LIB_ST32/stm32f10x_flash.c ****       FLASH->CR &= CR_MER_Reset;
 1308              		.loc 1 231 0
 1309 0030 1FBF     		itttt	ne
 1310 0032 2A69     		ldrne	r2, [r5, #16]
 1311 0034 41F6FB73 		movwne	r3, #8187
 1312 0038 1340     		andne	r3, r2, r3
 1313 003a 2B61     		strne	r3, [r5, #16]
 236:../LIB_HW/Driver/LIB_ST32/stm32f10x_flash.c **** }
 1314              		.loc 1 236 0
 1315 003c 38BD     		pop	{r3, r4, r5, pc}
 1316              	.L144:
 1317 003e 00BF     		.align	2
 1318              	.L143:
 1319 0040 00000000 		.word	FLASH_WaitForLastOperation
 1320              		.cfi_endproc
 1321              	.LFE6:
 1323              		.section	.text.FLASH_ErasePage,"ax",%progbits
 1324              		.align	2
 1325              		.global	FLASH_ErasePage
 1326              		.thumb
 1327              		.thumb_func
 1329              	FLASH_ErasePage:
 1330              	.LFB5:
 174:../LIB_HW/Driver/LIB_ST32/stm32f10x_flash.c **** {
 1331              		.loc 1 174 0
 1332              		.cfi_startproc
 1333              		@ args = 0, pretend = 0, frame = 0
 1334              		@ frame_needed = 0, uses_anonymous_args = 0
 1335              	.LVL103:
 1336 0000 70B5     		push	{r4, r5, r6, lr}
 1337              	.LCFI10:
 1338              		.cfi_def_cfa_offset 16
 1339              		.cfi_offset 4, -16
 1340              		.cfi_offset 5, -12
 1341              		.cfi_offset 6, -8
 1342              		.cfi_offset 14, -4
 174:../LIB_HW/Driver/LIB_ST32/stm32f10x_flash.c **** {
 1343              		.loc 1 174 0
 1344 0002 0646     		mov	r6, r0
 181:../LIB_HW/Driver/LIB_ST32/stm32f10x_flash.c ****   status = FLASH_WaitForLastOperation(EraseTimeout);
 1345              		.loc 1 181 0
 1346 0004 0F4C     		ldr	r4, .L151
 1347 0006 40F6FF70 		movw	r0, #4095
 1348              	.LVL104:
 1349 000a A047     		blx	r4
 1350              	.LVL105:
 183:../LIB_HW/Driver/LIB_ST32/stm32f10x_flash.c ****   if(status == FLASH_COMPLETE)
 1351              		.loc 1 183 0
 1352 000c 0428     		cmp	r0, #4
 1353 000e 00D0     		beq	.L150
 201:../LIB_HW/Driver/LIB_ST32/stm32f10x_flash.c **** }
 1354              		.loc 1 201 0
 1355 0010 70BD     		pop	{r4, r5, r6, pc}
 1356              	.L150:
 186:../LIB_HW/Driver/LIB_ST32/stm32f10x_flash.c ****     FLASH->CR|= CR_PER_Set;
 1357              		.loc 1 186 0
 1358 0012 4FF40055 		mov	r5, #8192
 1359 0016 C4F20205 		movt	r5, 16386
 1360 001a 2B69     		ldr	r3, [r5, #16]
 191:../LIB_HW/Driver/LIB_ST32/stm32f10x_flash.c ****     status = FLASH_WaitForLastOperation(EraseTimeout);
 1361              		.loc 1 191 0
 1362 001c 40F6FF70 		movw	r0, #4095
 1363              	.LVL106:
 186:../LIB_HW/Driver/LIB_ST32/stm32f10x_flash.c ****     FLASH->CR|= CR_PER_Set;
 1364              		.loc 1 186 0
 1365 0020 43F00203 		orr	r3, r3, #2
 1366 0024 2B61     		str	r3, [r5, #16]
 187:../LIB_HW/Driver/LIB_ST32/stm32f10x_flash.c ****     FLASH->AR = Page_Address; 
 1367              		.loc 1 187 0
 1368 0026 6E61     		str	r6, [r5, #20]
 188:../LIB_HW/Driver/LIB_ST32/stm32f10x_flash.c ****     FLASH->CR|= CR_STRT_Set;
 1369              		.loc 1 188 0
 1370 0028 2B69     		ldr	r3, [r5, #16]
 1371 002a 43F04003 		orr	r3, r3, #64
 1372 002e 2B61     		str	r3, [r5, #16]
 191:../LIB_HW/Driver/LIB_ST32/stm32f10x_flash.c ****     status = FLASH_WaitForLastOperation(EraseTimeout);
 1373              		.loc 1 191 0
 1374 0030 A047     		blx	r4
 1375              	.LVL107:
 193:../LIB_HW/Driver/LIB_ST32/stm32f10x_flash.c ****     if(status != FLASH_BUSY)
 1376              		.loc 1 193 0
 1377 0032 0128     		cmp	r0, #1
 196:../LIB_HW/Driver/LIB_ST32/stm32f10x_flash.c ****       FLASH->CR &= CR_PER_Reset;
 1378              		.loc 1 196 0
 1379 0034 1FBF     		itttt	ne
 1380 0036 2A69     		ldrne	r2, [r5, #16]
 1381 0038 41F6FD73 		movwne	r3, #8189
 1382 003c 1340     		andne	r3, r2, r3
 1383 003e 2B61     		strne	r3, [r5, #16]
 201:../LIB_HW/Driver/LIB_ST32/stm32f10x_flash.c **** }
 1384              		.loc 1 201 0
 1385 0040 70BD     		pop	{r4, r5, r6, pc}
 1386              	.L152:
 1387 0042 00BF     		.align	2
 1388              	.L151:
 1389 0044 00000000 		.word	FLASH_WaitForLastOperation
 1390              		.cfi_endproc
 1391              	.LFE5:
 1393              		.text
 1394              	.Letext0:
 1395              		.file 2 "../LIB_HW/Core/Hw_Define.h"
 1396              		.file 3 "../LIB_HW/Driver/LIB_ST32/stm32f10x_map.h"
 1397              		.file 4 "../LIB_HW/Driver/LIB_ST32/stm32f10x_flash.h"