Archive member included because of file (symbol)

/opt/local/lib/gcc/arm-none-eabi/4.7.2/../../../../arm-none-eabi/lib/thumb/libc.a(lib_a-ctype_.o)
                              Ap_StrCmd.o (__ctype_ptr__)
/opt/local/lib/gcc/arm-none-eabi/4.7.2/../../../../arm-none-eabi/lib/thumb/libc.a(lib_a-sscanf.o)
                              Ap_StrCmd.o (sscanf)
/opt/local/lib/gcc/arm-none-eabi/4.7.2/../../../../arm-none-eabi/lib/thumb/libc.a(lib_a-stdio.o)
                              /opt/local/lib/gcc/arm-none-eabi/4.7.2/../../../../arm-none-eabi/lib/thumb/libc.a(lib_a-sscanf.o) (__seofread)
/opt/local/lib/gcc/arm-none-eabi/4.7.2/../../../../arm-none-eabi/lib/thumb/libc.a(lib_a-strlen.o)
                              Ap_StrCmd.o (strlen)
/opt/local/lib/gcc/arm-none-eabi/4.7.2/../../../../arm-none-eabi/lib/thumb/libc.a(lib_a-strncmp.o)
                              Ap_StrCmd.o (strncmp)
/opt/local/lib/gcc/arm-none-eabi/4.7.2/../../../../arm-none-eabi/lib/thumb/libc.a(lib_a-svfscanf.o)
                              /opt/local/lib/gcc/arm-none-eabi/4.7.2/../../../../arm-none-eabi/lib/thumb/libc.a(lib_a-sscanf.o) (__ssvfscanf_r)
/opt/local/lib/gcc/arm-none-eabi/4.7.2/../../../../arm-none-eabi/lib/thumb/libc.a(lib_a-writer.o)
                              /opt/local/lib/gcc/arm-none-eabi/4.7.2/../../../../arm-none-eabi/lib/thumb/libc.a(lib_a-stdio.o) (_write_r)
/opt/local/lib/gcc/arm-none-eabi/4.7.2/../../../../arm-none-eabi/lib/thumb/libc.a(lib_a-closer.o)
                              /opt/local/lib/gcc/arm-none-eabi/4.7.2/../../../../arm-none-eabi/lib/thumb/libc.a(lib_a-stdio.o) (_close_r)
/opt/local/lib/gcc/arm-none-eabi/4.7.2/../../../../arm-none-eabi/lib/thumb/libc.a(lib_a-impure.o)
                              /opt/local/lib/gcc/arm-none-eabi/4.7.2/../../../../arm-none-eabi/lib/thumb/libc.a(lib_a-sscanf.o) (_impure_ptr)
/opt/local/lib/gcc/arm-none-eabi/4.7.2/../../../../arm-none-eabi/lib/thumb/libc.a(lib_a-iswspace.o)
                              /opt/local/lib/gcc/arm-none-eabi/4.7.2/../../../../arm-none-eabi/lib/thumb/libc.a(lib_a-svfscanf.o) (iswspace)
/opt/local/lib/gcc/arm-none-eabi/4.7.2/../../../../arm-none-eabi/lib/thumb/libc.a(lib_a-locale.o)
                              /opt/local/lib/gcc/arm-none-eabi/4.7.2/../../../../arm-none-eabi/lib/thumb/libc.a(lib_a-svfscanf.o) (__locale_mb_cur_max)
/opt/local/lib/gcc/arm-none-eabi/4.7.2/../../../../arm-none-eabi/lib/thumb/libc.a(lib_a-lseekr.o)
                              /opt/local/lib/gcc/arm-none-eabi/4.7.2/../../../../arm-none-eabi/lib/thumb/libc.a(lib_a-stdio.o) (_lseek_r)
/opt/local/lib/gcc/arm-none-eabi/4.7.2/../../../../arm-none-eabi/lib/thumb/libc.a(lib_a-mbrtowc.o)
                              /opt/local/lib/gcc/arm-none-eabi/4.7.2/../../../../arm-none-eabi/lib/thumb/libc.a(lib_a-svfscanf.o) (_mbrtowc_r)
/opt/local/lib/gcc/arm-none-eabi/4.7.2/../../../../arm-none-eabi/lib/thumb/libc.a(lib_a-mbtowc_r.o)
                              /opt/local/lib/gcc/arm-none-eabi/4.7.2/../../../../arm-none-eabi/lib/thumb/libc.a(lib_a-mbrtowc.o) (__mbtowc)
/opt/local/lib/gcc/arm-none-eabi/4.7.2/../../../../arm-none-eabi/lib/thumb/libc.a(lib_a-memset.o)
                              /opt/local/lib/gcc/arm-none-eabi/4.7.2/../../../../arm-none-eabi/lib/thumb/libc.a(lib_a-svfscanf.o) (memset)
/opt/local/lib/gcc/arm-none-eabi/4.7.2/../../../../arm-none-eabi/lib/thumb/libc.a(lib_a-readr.o)
                              /opt/local/lib/gcc/arm-none-eabi/4.7.2/../../../../arm-none-eabi/lib/thumb/libc.a(lib_a-stdio.o) (_read_r)
/opt/local/lib/gcc/arm-none-eabi/4.7.2/../../../../arm-none-eabi/lib/thumb/libc.a(lib_a-reent.o)
                              /opt/local/lib/gcc/arm-none-eabi/4.7.2/../../../../arm-none-eabi/lib/thumb/libc.a(lib_a-writer.o) (errno)
/opt/local/lib/gcc/arm-none-eabi/4.7.2/../../../../arm-none-eabi/lib/thumb/libc.a(lib_a-s_fpclassify.o)
                              /opt/local/lib/gcc/arm-none-eabi/4.7.2/../../../../arm-none-eabi/lib/thumb/libc.a(lib_a-svfscanf.o) (__fpclassifyd)
/opt/local/lib/gcc/arm-none-eabi/4.7.2/../../../../arm-none-eabi/lib/thumb/libc.a(lib_a-sccl.o)
                              /opt/local/lib/gcc/arm-none-eabi/4.7.2/../../../../arm-none-eabi/lib/thumb/libc.a(lib_a-svfscanf.o) (__sccl)
/opt/local/lib/gcc/arm-none-eabi/4.7.2/../../../../arm-none-eabi/lib/thumb/libc.a(lib_a-sf_nan.o)
                              /opt/local/lib/gcc/arm-none-eabi/4.7.2/../../../../arm-none-eabi/lib/thumb/libc.a(lib_a-svfscanf.o) (nanf)
/opt/local/lib/gcc/arm-none-eabi/4.7.2/../../../../arm-none-eabi/lib/thumb/libc.a(lib_a-sprintf.o)
                              /opt/local/lib/gcc/arm-none-eabi/4.7.2/../../../../arm-none-eabi/lib/thumb/libc.a(lib_a-svfscanf.o) (sprintf)
/opt/local/lib/gcc/arm-none-eabi/4.7.2/../../../../arm-none-eabi/lib/thumb/libc.a(lib_a-strcmp.o)
                              /opt/local/lib/gcc/arm-none-eabi/4.7.2/../../../../arm-none-eabi/lib/thumb/libc.a(lib_a-locale.o) (strcmp)
/opt/local/lib/gcc/arm-none-eabi/4.7.2/../../../../arm-none-eabi/lib/thumb/libc.a(lib_a-strtod.o)
                              /opt/local/lib/gcc/arm-none-eabi/4.7.2/../../../../arm-none-eabi/lib/thumb/libc.a(lib_a-svfscanf.o) (_strtod_r)
/opt/local/lib/gcc/arm-none-eabi/4.7.2/../../../../arm-none-eabi/lib/thumb/libc.a(lib_a-strtol.o)
                              /opt/local/lib/gcc/arm-none-eabi/4.7.2/../../../../arm-none-eabi/lib/thumb/libc.a(lib_a-svfscanf.o) (_strtol_r)
/opt/local/lib/gcc/arm-none-eabi/4.7.2/../../../../arm-none-eabi/lib/thumb/libc.a(lib_a-strtoul.o)
                              /opt/local/lib/gcc/arm-none-eabi/4.7.2/../../../../arm-none-eabi/lib/thumb/libc.a(lib_a-svfscanf.o) (_strtoul_r)
/opt/local/lib/gcc/arm-none-eabi/4.7.2/../../../../arm-none-eabi/lib/thumb/libc.a(lib_a-svfiscanf.o)
                              /opt/local/lib/gcc/arm-none-eabi/4.7.2/../../../../arm-none-eabi/lib/thumb/libc.a(lib_a-svfscanf.o) (_sungetc_r)
/opt/local/lib/gcc/arm-none-eabi/4.7.2/../../../../arm-none-eabi/lib/thumb/libc.a(lib_a-svfprintf.o)
                              /opt/local/lib/gcc/arm-none-eabi/4.7.2/../../../../arm-none-eabi/lib/thumb/libc.a(lib_a-sprintf.o) (_svfprintf_r)
/opt/local/lib/gcc/arm-none-eabi/4.7.2/../../../../arm-none-eabi/lib/thumb/libc.a(lib_a-syscalls.o)
                              /opt/local/lib/gcc/arm-none-eabi/4.7.2/../../../../arm-none-eabi/lib/thumb/libc.a(lib_a-readr.o) (_read)
/opt/local/lib/gcc/arm-none-eabi/4.7.2/../../../../arm-none-eabi/lib/thumb/libc.a(lib_a-ungetc.o)
                              /opt/local/lib/gcc/arm-none-eabi/4.7.2/../../../../arm-none-eabi/lib/thumb/libc.a(lib_a-svfiscanf.o) (__submore)
/opt/local/lib/gcc/arm-none-eabi/4.7.2/../../../../arm-none-eabi/lib/thumb/libc.a(lib_a-dtoa.o)
                              /opt/local/lib/gcc/arm-none-eabi/4.7.2/../../../../arm-none-eabi/lib/thumb/libc.a(lib_a-svfprintf.o) (_dtoa_r)
/opt/local/lib/gcc/arm-none-eabi/4.7.2/../../../../arm-none-eabi/lib/thumb/libc.a(lib_a-errno.o)
                              /opt/local/lib/gcc/arm-none-eabi/4.7.2/../../../../arm-none-eabi/lib/thumb/libc.a(lib_a-syscalls.o) (__errno)
/opt/local/lib/gcc/arm-none-eabi/4.7.2/../../../../arm-none-eabi/lib/thumb/libc.a(lib_a-fflush.o)
                              /opt/local/lib/gcc/arm-none-eabi/4.7.2/../../../../arm-none-eabi/lib/thumb/libc.a(lib_a-ungetc.o) (_fflush_r)
/opt/local/lib/gcc/arm-none-eabi/4.7.2/../../../../arm-none-eabi/lib/thumb/libc.a(lib_a-findfp.o)
                              /opt/local/lib/gcc/arm-none-eabi/4.7.2/../../../../arm-none-eabi/lib/thumb/libc.a(lib_a-syscalls.o) (__sinit)
/opt/local/lib/gcc/arm-none-eabi/4.7.2/../../../../arm-none-eabi/lib/thumb/libc.a(lib_a-freer.o)
                              /opt/local/lib/gcc/arm-none-eabi/4.7.2/../../../../arm-none-eabi/lib/thumb/libc.a(lib_a-reent.o) (_free_r)
/opt/local/lib/gcc/arm-none-eabi/4.7.2/../../../../arm-none-eabi/lib/thumb/libc.a(lib_a-fwalk.o)
                              /opt/local/lib/gcc/arm-none-eabi/4.7.2/../../../../arm-none-eabi/lib/thumb/libc.a(lib_a-findfp.o) (_fwalk)
/opt/local/lib/gcc/arm-none-eabi/4.7.2/../../../../arm-none-eabi/lib/thumb/libc.a(lib_a-gdtoa-gethex.o)
                              /opt/local/lib/gcc/arm-none-eabi/4.7.2/../../../../arm-none-eabi/lib/thumb/libc.a(lib_a-strtod.o) (__gethex)
/opt/local/lib/gcc/arm-none-eabi/4.7.2/../../../../arm-none-eabi/lib/thumb/libc.a(lib_a-gdtoa-hexnan.o)
                              /opt/local/lib/gcc/arm-none-eabi/4.7.2/../../../../arm-none-eabi/lib/thumb/libc.a(lib_a-strtod.o) (__hexnan)
/opt/local/lib/gcc/arm-none-eabi/4.7.2/../../../../arm-none-eabi/lib/thumb/libc.a(lib_a-mallocr.o)
                              /opt/local/lib/gcc/arm-none-eabi/4.7.2/../../../../arm-none-eabi/lib/thumb/libc.a(lib_a-svfprintf.o) (_malloc_r)
/opt/local/lib/gcc/arm-none-eabi/4.7.2/../../../../arm-none-eabi/lib/thumb/libc.a(lib_a-memchr-stub.o)
                              /opt/local/lib/gcc/arm-none-eabi/4.7.2/../../../../arm-none-eabi/lib/thumb/libc.a(lib_a-svfprintf.o) (memchr)
/opt/local/lib/gcc/arm-none-eabi/4.7.2/../../../../arm-none-eabi/lib/thumb/libc.a(lib_a-memcpy-stub.o)
                              /opt/local/lib/gcc/arm-none-eabi/4.7.2/../../../../arm-none-eabi/lib/thumb/libc.a(lib_a-strtod.o) (memcpy)
/opt/local/lib/gcc/arm-none-eabi/4.7.2/../../../../arm-none-eabi/lib/thumb/libc.a(lib_a-mlock.o)
                              /opt/local/lib/gcc/arm-none-eabi/4.7.2/../../../../arm-none-eabi/lib/thumb/libc.a(lib_a-freer.o) (__malloc_lock)
/opt/local/lib/gcc/arm-none-eabi/4.7.2/../../../../arm-none-eabi/lib/thumb/libc.a(lib_a-mprec.o)
                              /opt/local/lib/gcc/arm-none-eabi/4.7.2/../../../../arm-none-eabi/lib/thumb/libc.a(lib_a-strtod.o) (_Balloc)
/opt/local/lib/gcc/arm-none-eabi/4.7.2/../../../../arm-none-eabi/lib/thumb/libc.a(lib_a-reallocr.o)
                              /opt/local/lib/gcc/arm-none-eabi/4.7.2/../../../../arm-none-eabi/lib/thumb/libc.a(lib_a-ungetc.o) (_realloc_r)
/opt/local/lib/gcc/arm-none-eabi/4.7.2/../../../../arm-none-eabi/lib/thumb/libc.a(lib_a-sbrkr.o)
                              /opt/local/lib/gcc/arm-none-eabi/4.7.2/../../../../arm-none-eabi/lib/thumb/libc.a(lib_a-freer.o) (_sbrk_r)
/opt/local/lib/gcc/arm-none-eabi/4.7.2/../../../../arm-none-eabi/lib/thumb/libc.a(lib_a-svfiprintf.o)
                              /opt/local/lib/gcc/arm-none-eabi/4.7.2/../../../../arm-none-eabi/lib/thumb/libc.a(lib_a-svfprintf.o) (__ssprint_r)
/opt/local/lib/gcc/arm-none-eabi/4.7.2/../../../../arm-none-eabi/lib/thumb/libc.a(lib_a-callocr.o)
                              /opt/local/lib/gcc/arm-none-eabi/4.7.2/../../../../arm-none-eabi/lib/thumb/libc.a(lib_a-mprec.o) (_calloc_r)
/opt/local/lib/gcc/arm-none-eabi/4.7.2/../../../../arm-none-eabi/lib/thumb/libc.a(lib_a-fclose.o)
                              /opt/local/lib/gcc/arm-none-eabi/4.7.2/../../../../arm-none-eabi/lib/thumb/libc.a(lib_a-findfp.o) (fclose)
/opt/local/lib/gcc/arm-none-eabi/4.7.2/../../../../arm-none-eabi/lib/thumb/libc.a(lib_a-memmove.o)
                              /opt/local/lib/gcc/arm-none-eabi/4.7.2/../../../../arm-none-eabi/lib/thumb/libc.a(lib_a-reallocr.o) (memmove)
/opt/local/lib/gcc/arm-none-eabi/4.7.2/thumb/libgcc.a(_udivsi3.o)
                              /opt/local/lib/gcc/arm-none-eabi/4.7.2/../../../../arm-none-eabi/lib/thumb/libc.a(lib_a-strtol.o) (__aeabi_uidiv)
/opt/local/lib/gcc/arm-none-eabi/4.7.2/thumb/libgcc.a(_divsi3.o)
                              /opt/local/lib/gcc/arm-none-eabi/4.7.2/../../../../arm-none-eabi/lib/thumb/libc.a(lib_a-svfprintf.o) (__aeabi_idiv)
/opt/local/lib/gcc/arm-none-eabi/4.7.2/thumb/libgcc.a(_dvmd_tls.o)
                              /opt/local/lib/gcc/arm-none-eabi/4.7.2/thumb/libgcc.a(_udivsi3.o) (__aeabi_idiv0)
/opt/local/lib/gcc/arm-none-eabi/4.7.2/thumb/libgcc.a(_arm_addsubdf3.o)
                              /opt/local/lib/gcc/arm-none-eabi/4.7.2/../../../../arm-none-eabi/lib/thumb/libc.a(lib_a-strtod.o) (__aeabi_dsub)
/opt/local/lib/gcc/arm-none-eabi/4.7.2/thumb/libgcc.a(_arm_muldivdf3.o)
                              /opt/local/lib/gcc/arm-none-eabi/4.7.2/../../../../arm-none-eabi/lib/thumb/libc.a(lib_a-strtod.o) (__aeabi_dmul)
/opt/local/lib/gcc/arm-none-eabi/4.7.2/thumb/libgcc.a(_arm_cmpdf2.o)
                              /opt/local/lib/gcc/arm-none-eabi/4.7.2/../../../../arm-none-eabi/lib/thumb/libc.a(lib_a-strtod.o) (__aeabi_dcmpeq)
/opt/local/lib/gcc/arm-none-eabi/4.7.2/thumb/libgcc.a(_arm_fixdfsi.o)
                              /opt/local/lib/gcc/arm-none-eabi/4.7.2/../../../../arm-none-eabi/lib/thumb/libc.a(lib_a-strtod.o) (__aeabi_d2iz)
/opt/local/lib/gcc/arm-none-eabi/4.7.2/thumb/libgcc.a(_arm_fixunsdfsi.o)
                              /opt/local/lib/gcc/arm-none-eabi/4.7.2/../../../../arm-none-eabi/lib/thumb/libc.a(lib_a-strtod.o) (__aeabi_d2uiz)
/opt/local/lib/gcc/arm-none-eabi/4.7.2/thumb/libgcc.a(_arm_truncdfsf2.o)
                              /opt/local/lib/gcc/arm-none-eabi/4.7.2/../../../../arm-none-eabi/lib/thumb/libc.a(lib_a-svfscanf.o) (__aeabi_d2f)

Allocating common symbols
Common symbol       size              file

Ap_StrCmd_Dic_Ptr   0x370             Ap_StrCmd.o
SaveRState          0x2               usb_int.o
Ap_StrCmd_CmdStrExe
                    0x3c              Ap_StrCmd.o
Hw_Si47xx_LastResp  0x10              Hw_Si47xx.o
Ap_StrCmd_ChSize    0x2               Ap_StrCmd.o
Hw_N5110G_TxFrameBuf
                    0x1f8             Hw_N5110G.o
Hw_DHT11_BitTbl     0x5a              Hw_DHT11.o
Hw_7Seg_Data        0x4               Hw_7Seg.o
SaveState           0x2               usb_init.o
Hw_ISR_VectorTable  0x190             Hw_ISR.o
errno               0x4               /opt/local/lib/gcc/arm-none-eabi/4.7.2/../../../../arm-none-eabi/lib/thumb/libc.a(lib_a-reent.o)
Ap_StrCmd_CmdCheck  0x1               Ap_StrCmd.o
Ap_StrCmd_Q_Start   0x2               Ap_StrCmd_Q.o
Hw_VBus_AddrTbl     0x200             Hw_VBus.o
Hw_KeyPad_Data      0x4               Hw_KeyPad.o
Hw_KeyPad_EventList
                    0xc               Hw_KeyPad.o
Hw_Uart_Q_Buffer    0xe7              Hw_Uart_Q.o
Hw_N5110G_Frame_Index
                    0x2               Hw_N5110G.o
wIstr               0x2               usb_istr.o
pProperty           0x4               usb_init.o
__hexdig            0x100             /opt/local/lib/gcc/arm-none-eabi/4.7.2/../../../../arm-none-eabi/lib/thumb/libc.a(lib_a-gdtoa-gethex.o)
EPindex             0x1               usb_init.o
Hw_Uart_Ch          0x3c              Hw_Uart.o
Hw_KeyPad_Log       0xc0              Hw_KeyPad.o
Ap_StrCmd_Q_Buffer  0x168             Ap_StrCmd_Q.o
SaveTState          0x2               usb_int.o
Ap_StrCmd_CmdStr    0x3c              Ap_StrCmd.o
Hw_DHT11_Log        0x9               Hw_DHT11.o
Ap_StrCmd_Q_End     0x2               Ap_StrCmd_Q.o
Device_Info         0x1c              usb_init.o
Ap_StrCmd_DlyCheck  0x1               Ap_StrCmd.o
pUser_Standard_Requests
                    0x4               usb_init.o
Ap_StrCmd_PrintPtr  0x4               Ap_StrCmd.o
Ap_StrCmd_Size      0x2               Ap_StrCmd.o
USB_Rx_Buffer       0x40              usb_endp.o
USART_Rx_Buffer     0x800             hw_config.o
StatusInfo          0x2               usb_core.o
pInformation        0x4               usb_init.o
ResumeS             0x2               usb_pwr.o
Hw_Uart_Q_Size      0xe               Hw_Uart_Q.o
Ap_Radio_Log        0x16              Ap_Radio.o
Ap_StrCmd_Q_Size    0x2               Ap_StrCmd_Q.o
Hw_N5110G_Frame_DrawReq
                    0x4               Hw_N5110G.o
Ap_StrCmd_PutchPtr  0x4               Ap_StrCmd.o
pStrPrintBuf        0x4               Lb_Printf.o
Hw_KeyPad_PressedList
                    0x10              Hw_KeyPad.o
Hw_Uart_Q_End       0xe               Hw_Uart_Q.o
EP                  0x20              usb_pwr.o
Hw_N5110G_RxFrameBuf
                    0x1f8             Hw_N5110G.o
wInterrupt_Mask     0x2               usb_init.o
Ap_StrCmd_LoopCheck
                    0x1               Ap_StrCmd.o
Hw_Uart_Q_Start     0xe               Hw_Uart_Q.o

Discarded input sections

 .text          0x0000000000000000        0x0 main.o
 .data          0x0000000000000000        0x0 main.o
 .bss           0x0000000000000000        0x0 main.o
 .text          0x0000000000000000        0x0 Ap.o
 .data          0x0000000000000000        0x0 Ap.o
 .bss           0x0000000000000000        0x0 Ap.o
 .text          0x0000000000000000        0x0 Ap_Radio.o
 .data          0x0000000000000000        0x0 Ap_Radio.o
 .bss           0x0000000000000000        0x0 Ap_Radio.o
 .text.Ap_Radio_ApiStart
                0x0000000000000000       0x10 Ap_Radio.o
 .text.Ap_Radio_BandSetFM
                0x0000000000000000       0x24 Ap_Radio.o
 .text.Ap_Radio_BandSetAM
                0x0000000000000000       0x24 Ap_Radio.o
 .text.Ap_Radio_BandGet
                0x0000000000000000       0x10 Ap_Radio.o
 .text.Ap_Radio_VolumeSet
                0x0000000000000000       0x34 Ap_Radio.o
 .text.Ap_Radio_VolumeGet
                0x0000000000000000       0x50 Ap_Radio.o
 .text.Ap_Radio_VolumeSetDown
                0x0000000000000000       0x38 Ap_Radio.o
 .text.Ap_Radio_VolumeSetUp
                0x0000000000000000       0x3c Ap_Radio.o
 .text.Ap_Radio_FM_ChannelSet
                0x0000000000000000       0x4c Ap_Radio.o
 .text.Ap_Radio_AM_ChannelSet
                0x0000000000000000       0x4c Ap_Radio.o
 .text.Ap_Radio_ChannelSet
                0x0000000000000000       0x2c Ap_Radio.o
 .text.Ap_Radio_FM_ChannelGet
                0x0000000000000000       0x38 Ap_Radio.o
 .text.Ap_Radio_AM_ChannelGet
                0x0000000000000000       0x38 Ap_Radio.o
 .text.Ap_Radio_ChannelGet
                0x0000000000000000       0x48 Ap_Radio.o
 .text.Ap_Radio_ChannelSetFirst
                0x0000000000000000       0x30 Ap_Radio.o
 .text.Ap_Radio_Init
                0x0000000000000000       0x4c Ap_Radio.o
 .text.Ap_Radio_ChannelSetLast
                0x0000000000000000       0x30 Ap_Radio.o
 .text.Ap_Radio_ChannelSetNext
                0x0000000000000000       0x28 Ap_Radio.o
 .text.Ap_Radio_ChannelSetPrev
                0x0000000000000000       0x28 Ap_Radio.o
 .text.Ap_Radio_MuteSetOn
                0x0000000000000000       0x24 Ap_Radio.o
 .text.Ap_Radio_MuteSetOff
                0x0000000000000000       0x24 Ap_Radio.o
 .text.Ap_Radio_SeekToFirst
                0x0000000000000000       0x8c Ap_Radio.o
 .text.Ap_Radio_SeekToLast
                0x0000000000000000       0x90 Ap_Radio.o
 .text.Ap_Radio_SeekFromFirst
                0x0000000000000000       0x54 Ap_Radio.o
 .text.Ap_Radio_SeekFromLast
                0x0000000000000000       0x54 Ap_Radio.o
 .debug_info    0x0000000000000000      0xb88 Ap_Radio.o
 .debug_abbrev  0x0000000000000000      0x271 Ap_Radio.o
 .debug_loc     0x0000000000000000      0xbe5 Ap_Radio.o
 .debug_aranges
                0x0000000000000000       0xe0 Ap_Radio.o
 .debug_ranges  0x0000000000000000      0x1b8 Ap_Radio.o
 .debug_line    0x0000000000000000      0x3e6 Ap_Radio.o
 .debug_str     0x0000000000000000      0x3c0 Ap_Radio.o
 .comment       0x0000000000000000       0x12 Ap_Radio.o
 .ARM.attributes
                0x0000000000000000       0x33 Ap_Radio.o
 .debug_frame   0x0000000000000000      0x2dc Ap_Radio.o
 COMMON         0x0000000000000000       0x16 Ap_Radio.o
 .text          0x0000000000000000        0x0 Ap_StrCmd.o
 .data          0x0000000000000000        0x0 Ap_StrCmd.o
 .bss           0x0000000000000000        0x0 Ap_StrCmd.o
 .text.Ap_StrCmd_SetFunc_Putch
                0x0000000000000000        0xc Ap_StrCmd.o
 .text.Ap_StrCmd_Putch
                0x0000000000000000       0x10 Ap_StrCmd.o
 .text.Ap_StrCmd_CmdClear
                0x0000000000000000       0x24 Ap_StrCmd.o
 .text.Ap_StrCmd_GetSize
                0x0000000000000000       0x10 Ap_StrCmd.o
 .text.Ap_StrCmd_Delay
                0x0000000000000000       0x10 Ap_StrCmd.o
 .text.Ap_StrCmd_Loop
                0x0000000000000000       0x18 Ap_StrCmd.o
 .text.Ap_StrCmd_StrLen
                0x0000000000000000       0x14 Ap_StrCmd.o
 .text.Ap_StrCmd_StrCopy
                0x0000000000000000       0x28 Ap_StrCmd.o
 .text          0x0000000000000000        0x0 Ap_StrCmd_Q.o
 .data          0x0000000000000000        0x0 Ap_StrCmd_Q.o
 .bss           0x0000000000000000        0x0 Ap_StrCmd_Q.o
 .text.Ap_StrCmd_Q_VAILD
                0x0000000000000000       0x38 Ap_StrCmd_Q.o
 .text.Ap_StrCmd_Q_PushReady
                0x0000000000000000       0x18 Ap_StrCmd_Q.o
 .text          0x0000000000000000        0x0 Ap_RadioMenu.o
 .data          0x0000000000000000        0x0 Ap_RadioMenu.o
 .bss           0x0000000000000000        0x0 Ap_RadioMenu.o
 .text.TimerDebug_Tick
                0x0000000000000000       0x18 Ap_RadioMenu.o
 .text.Ap_RadioMenu_ShowMenu
                0x0000000000000000       0xa4 Ap_RadioMenu.o
 .text.Ap_RadioMenu_GetCmd
                0x0000000000000000       0xb4 Ap_RadioMenu.o
 .text.Ap_RadioMenu_ExeCmd
                0x0000000000000000      0x390 Ap_RadioMenu.o
 .bss.FM_Freq_Index.4513
                0x0000000000000000        0x2 Ap_RadioMenu.o
 .bss.Band_Mode.4512
                0x0000000000000000        0x1 Ap_RadioMenu.o
 .rodata.AM_Freq.4516
                0x0000000000000000       0x14 Ap_RadioMenu.o
 .rodata.FM_Freq.4514
                0x0000000000000000       0x38 Ap_RadioMenu.o
 .rodata.str1.4
                0x0000000000000000      0x400 Ap_RadioMenu.o
 .bss.AM_Freq_Index.4515
                0x0000000000000000        0x2 Ap_RadioMenu.o
 .debug_info    0x0000000000000000      0x5e2 Ap_RadioMenu.o
 .debug_abbrev  0x0000000000000000      0x158 Ap_RadioMenu.o
 .debug_loc     0x0000000000000000      0x25d Ap_RadioMenu.o
 .debug_aranges
                0x0000000000000000       0x38 Ap_RadioMenu.o
 .debug_ranges  0x0000000000000000       0x28 Ap_RadioMenu.o
 .debug_line    0x0000000000000000      0x160 Ap_RadioMenu.o
 .debug_str     0x0000000000000000      0x17b Ap_RadioMenu.o
 .comment       0x0000000000000000       0x12 Ap_RadioMenu.o
 .ARM.attributes
                0x0000000000000000       0x33 Ap_RadioMenu.o
 .debug_frame   0x0000000000000000       0xa0 Ap_RadioMenu.o
 .text          0x0000000000000000        0x0 Ap_GLcdMenu.o
 .data          0x0000000000000000        0x0 Ap_GLcdMenu.o
 .bss           0x0000000000000000        0x0 Ap_GLcdMenu.o
 .text.Ap_GCldMenu_MoveCircleTick_2nd
                0x0000000000000000       0x74 Ap_GLcdMenu.o
 .text.Ap_GCldMenu_MoveCircleTick_1st
                0x0000000000000000       0x74 Ap_GLcdMenu.o
 .text.Ap_GLcdMenu_ShowMenu
                0x0000000000000000       0xa4 Ap_GLcdMenu.o
 .text.Ap_GLcdMenu_GetCmd
                0x0000000000000000       0x30 Ap_GLcdMenu.o
 .text.Ap_GLcdMenu_ExeCmd
                0x0000000000000000      0x204 Ap_GLcdMenu.o
 .data.dir.4500
                0x0000000000000000        0x1 Ap_GLcdMenu.o
 .bss.cnt.4493  0x0000000000000000        0x1 Ap_GLcdMenu.o
 .bss.Count.4518
                0x0000000000000000        0x1 Ap_GLcdMenu.o
 .bss.cnt.4501  0x0000000000000000        0x1 Ap_GLcdMenu.o
 .rodata.str1.4
                0x0000000000000000      0x318 Ap_GLcdMenu.o
 .bss.x.4491    0x0000000000000000        0x1 Ap_GLcdMenu.o
 .data.dir.4492
                0x0000000000000000        0x1 Ap_GLcdMenu.o
 .bss.x.4499    0x0000000000000000        0x1 Ap_GLcdMenu.o
 .debug_info    0x0000000000000000      0x560 Ap_GLcdMenu.o
 .debug_abbrev  0x0000000000000000      0x14f Ap_GLcdMenu.o
 .debug_loc     0x0000000000000000      0x114 Ap_GLcdMenu.o
 .debug_aranges
                0x0000000000000000       0x40 Ap_GLcdMenu.o
 .debug_ranges  0x0000000000000000       0x50 Ap_GLcdMenu.o
 .debug_line    0x0000000000000000      0x132 Ap_GLcdMenu.o
 .debug_str     0x0000000000000000      0x16f Ap_GLcdMenu.o
 .comment       0x0000000000000000       0x12 Ap_GLcdMenu.o
 .ARM.attributes
                0x0000000000000000       0x33 Ap_GLcdMenu.o
 .debug_frame   0x0000000000000000       0xbc Ap_GLcdMenu.o
 .text          0x0000000000000000        0x0 Ap_EduMenu.o
 .data          0x0000000000000000        0x0 Ap_EduMenu.o
 .bss           0x0000000000000000        0x0 Ap_EduMenu.o
 .text.Ap_EduMenu_GetCmd
                0x0000000000000000       0x30 Ap_EduMenu.o
 .text          0x0000000000000000        0x0 Lb_Util.o
 .data          0x0000000000000000        0x0 Lb_Util.o
 .bss           0x0000000000000000        0x0 Lb_Util.o
 .text.delay    0x0000000000000000       0x14 Lb_Util.o
 .text.delay_second
                0x0000000000000000       0x14 Lb_Util.o
 .debug_info    0x0000000000000000       0xde Lb_Util.o
 .debug_abbrev  0x0000000000000000       0x95 Lb_Util.o
 .debug_loc     0x0000000000000000       0x5d Lb_Util.o
 .debug_aranges
                0x0000000000000000       0x28 Lb_Util.o
 .debug_ranges  0x0000000000000000       0x18 Lb_Util.o
 .debug_line    0x0000000000000000       0x5a Lb_Util.o
 .debug_str     0x0000000000000000       0xd2 Lb_Util.o
 .comment       0x0000000000000000       0x12 Lb_Util.o
 .ARM.attributes
                0x0000000000000000       0x33 Lb_Util.o
 .debug_frame   0x0000000000000000       0x34 Lb_Util.o
 .text          0x0000000000000000        0x0 Lb_Printf.o
 .data          0x0000000000000000        0x0 Lb_Printf.o
 .bss           0x0000000000000000        0x0 Lb_Printf.o
 .text.StrNCmp  0x0000000000000000       0x38 Lb_Printf.o
 .text.StrCmp   0x0000000000000000       0x3c Lb_Printf.o
 .text          0x0000000000000000        0x0 Hw_StartUp.o
 .data          0x0000000000000000        0x0 Hw_StartUp.o
 .bss           0x0000000000000000        0x0 Hw_StartUp.o
 .text          0x0000000000000000        0x0 Hw.o
 .data          0x0000000000000000        0x0 Hw.o
 .bss           0x0000000000000000        0x0 Hw.o
 .text.Hw_Wait  0x0000000000000000       0x1c Hw.o
 .text          0x0000000000000000        0x0 Hw_Uart.o
 .data          0x0000000000000000        0x0 Hw_Uart.o
 .bss           0x0000000000000000        0x0 Hw_Uart.o
 .text.Hw_Uart_Open
                0x0000000000000000       0x28 Hw_Uart.o
 .text.Hw_Uart_Getch
                0x0000000000000000       0x30 Hw_Uart.o
 .text.get_byte
                0x0000000000000000       0x10 Hw_Uart.o
 .text          0x0000000000000000        0x0 Hw_PLL.o
 .data          0x0000000000000000        0x0 Hw_PLL.o
 .bss           0x0000000000000000        0x0 Hw_PLL.o
 .text          0x0000000000000000        0x0 Hw_ISR.o
 .data          0x0000000000000000        0x0 Hw_ISR.o
 .bss           0x0000000000000000        0x0 Hw_ISR.o
 .text          0x0000000000000000        0x0 Hw_Timer.o
 .data          0x0000000000000000        0x0 Hw_Timer.o
 .bss           0x0000000000000000        0x0 Hw_Timer.o
 .text.Hw_Timer_Setup
                0x0000000000000000       0x40 Hw_Timer.o
 .text.Hw_Timer_Stop
                0x0000000000000000       0x14 Hw_Timer.o
 .text.Hw_Timer_Reset
                0x0000000000000000       0x1c Hw_Timer.o
 .text.Hw_Timer_Get_Handle
                0x0000000000000000       0x18 Hw_Timer.o
 .text.Hw_Timer_TimeStart
                0x0000000000000000       0x10 Hw_Timer.o
 .text.Hw_Timer_TimeGetElapse
                0x0000000000000000       0x10 Hw_Timer.o
 .bss.Tmr_HandleIndex
                0x0000000000000000        0x2 Hw_Timer.o
 .text          0x0000000000000000        0x0 Hw_Uart_Q.o
 .data          0x0000000000000000        0x0 Hw_Uart_Q.o
 .bss           0x0000000000000000        0x0 Hw_Uart_Q.o
 .text.HW_UART_Q_SIZE
                0x0000000000000000       0x2c Hw_Uart_Q.o
 .text.Hw_Uart_Q_PushReady
                0x0000000000000000       0x18 Hw_Uart_Q.o
 .text          0x0000000000000000        0x0 Hw_I2C.o
 .data          0x0000000000000000        0x0 Hw_I2C.o
 .bss           0x0000000000000000        0x0 Hw_I2C.o
 .text.Hw_I2C_Init
                0x0000000000000000       0x10 Hw_I2C.o
 .text.Hw_I2C_Write
                0x0000000000000000       0x10 Hw_I2C.o
 .text.Hw_I2C_Read
                0x0000000000000000       0x10 Hw_I2C.o
 .debug_info    0x0000000000000000      0x195 Hw_I2C.o
 .debug_abbrev  0x0000000000000000       0xe0 Hw_I2C.o
 .debug_loc     0x0000000000000000      0x168 Hw_I2C.o
 .debug_aranges
                0x0000000000000000       0x30 Hw_I2C.o
 .debug_ranges  0x0000000000000000       0x20 Hw_I2C.o
 .debug_line    0x0000000000000000       0x7a Hw_I2C.o
 .debug_str     0x0000000000000000       0xed Hw_I2C.o
 .comment       0x0000000000000000       0x12 Hw_I2C.o
 .ARM.attributes
                0x0000000000000000       0x33 Hw_I2C.o
 .debug_frame   0x0000000000000000       0x64 Hw_I2C.o
 .text          0x0000000000000000        0x0 Hw_I2C_SW.o
 .data          0x0000000000000000        0x0 Hw_I2C_SW.o
 .bss           0x0000000000000000        0x0 Hw_I2C_SW.o
 .text.Hw_I2C_SW_SCL_HIGH
                0x0000000000000000       0x28 Hw_I2C_SW.o
 .text.Hw_I2C_SW_SCL_LOW
                0x0000000000000000       0x28 Hw_I2C_SW.o
 .text.Hw_I2C_SW_SDA_HIGH
                0x0000000000000000       0x14 Hw_I2C_SW.o
 .text.Hw_I2C_SW_IO_Setup
                0x0000000000000000       0x54 Hw_I2C_SW.o
 .text.Hw_I2C_SW_Init
                0x0000000000000000       0x10 Hw_I2C_SW.o
 .text.Hw_I2C_SW_SDA_LOW
                0x0000000000000000       0x14 Hw_I2C_SW.o
 .text.Hw_I2C_SW_WriteByte_NoAck
                0x0000000000000000       0x60 Hw_I2C_SW.o
 .text.Hw_I2C_SW_EndTransmit
                0x0000000000000000       0x38 Hw_I2C_SW.o
 .text.Hw_I2C_SW_StartTransmit
                0x0000000000000000       0x38 Hw_I2C_SW.o
 .text.Hw_I2C_SW_SDA
                0x0000000000000000       0x18 Hw_I2C_SW.o
 .text.Hw_I2C_SW_SetDir_SDA_Input
                0x0000000000000000       0x30 Hw_I2C_SW.o
 .text.Hw_I2C_SW_SetDir_SDA_Output
                0x0000000000000000       0x20 Hw_I2C_SW.o
 .text.Hw_I2C_SW_ReadByte_Ack
                0x0000000000000000       0x74 Hw_I2C_SW.o
 .text.Hw_I2C_SW_ReadByte_NoAck
                0x0000000000000000       0x74 Hw_I2C_SW.o
 .text.Hw_I2C_SW_WriteByte_Ack
                0x0000000000000000       0x84 Hw_I2C_SW.o
 .text.Hw_I2C_SW_Read
                0x0000000000000000       0x98 Hw_I2C_SW.o
 .text.Hw_I2C_SW_Write
                0x0000000000000000       0x50 Hw_I2C_SW.o
 .debug_info    0x0000000000000000      0x9f1 Hw_I2C_SW.o
 .debug_abbrev  0x0000000000000000      0x23f Hw_I2C_SW.o
 .debug_loc     0x0000000000000000      0x6cb Hw_I2C_SW.o
 .debug_aranges
                0x0000000000000000       0xa0 Hw_I2C_SW.o
 .debug_ranges  0x0000000000000000       0x90 Hw_I2C_SW.o
 .debug_line    0x0000000000000000      0x28c Hw_I2C_SW.o
 .debug_str     0x0000000000000000      0x240 Hw_I2C_SW.o
 .comment       0x0000000000000000       0x12 Hw_I2C_SW.o
 .ARM.attributes
                0x0000000000000000       0x33 Hw_I2C_SW.o
 .debug_frame   0x0000000000000000      0x22c Hw_I2C_SW.o
 .text          0x0000000000000000        0x0 Hw_SPI.o
 .data          0x0000000000000000        0x0 Hw_SPI.o
 .bss           0x0000000000000000        0x0 Hw_SPI.o
 .text.Hw_SPI_Ch1_Init
                0x0000000000000000        0x4 Hw_SPI.o
 .text.Hw_SPI_Ch2_Init
                0x0000000000000000       0x74 Hw_SPI.o
 .text.Hw_SPI_Init
                0x0000000000000000       0x2c Hw_SPI.o
 .text.Hw_SPI_Enable
                0x0000000000000000       0x18 Hw_SPI.o
 .text.Hw_SPI_StartDMA
                0x0000000000000000       0x20 Hw_SPI.o
 .text.Hw_SPI_StopDMA
                0x0000000000000000       0x20 Hw_SPI.o
 .text.Hw_SPI_Disable
                0x0000000000000000        0x4 Hw_SPI.o
 .text.Hw_SPI_Write8Bit
                0x0000000000000000       0x60 Hw_SPI.o
 .text.Hw_SPI_Write16Bit
                0x0000000000000000       0x60 Hw_SPI.o
 .bss.Called.4390
                0x0000000000000000        0x1 Hw_SPI.o
 .debug_info    0x0000000000000000      0x277 Hw_SPI.o
 .debug_abbrev  0x0000000000000000      0x1c2 Hw_SPI.o
 .debug_loc     0x0000000000000000      0x186 Hw_SPI.o
 .debug_aranges
                0x0000000000000000       0x60 Hw_SPI.o
 .debug_ranges  0x0000000000000000       0x50 Hw_SPI.o
 .debug_line    0x0000000000000000      0x15e Hw_SPI.o
 .debug_str     0x0000000000000000      0x166 Hw_SPI.o
 .comment       0x0000000000000000       0x12 Hw_SPI.o
 .ARM.attributes
                0x0000000000000000       0x33 Hw_SPI.o
 .debug_frame   0x0000000000000000       0xac Hw_SPI.o
 .text          0x0000000000000000        0x0 Hw_DMA.o
 .data          0x0000000000000000        0x0 Hw_DMA.o
 .bss           0x0000000000000000        0x0 Hw_DMA.o
 .text.Hw_DMA_Init
                0x0000000000000000       0x24 Hw_DMA.o
 .text.Hw_DMA_SPI2_Setup
                0x0000000000000000       0x78 Hw_DMA.o
 .text.Hw_DMA_SPI2_IsTransFinished
                0x0000000000000000       0x28 Hw_DMA.o
 .bss.Called.4386
                0x0000000000000000        0x1 Hw_DMA.o
 .debug_info    0x0000000000000000      0x11d Hw_DMA.o
 .debug_abbrev  0x0000000000000000       0xc3 Hw_DMA.o
 .debug_loc     0x0000000000000000       0x78 Hw_DMA.o
 .debug_aranges
                0x0000000000000000       0x30 Hw_DMA.o
 .debug_ranges  0x0000000000000000       0x20 Hw_DMA.o
 .debug_line    0x0000000000000000       0xa6 Hw_DMA.o
 .debug_str     0x0000000000000000      0x11b Hw_DMA.o
 .comment       0x0000000000000000       0x12 Hw_DMA.o
 .ARM.attributes
                0x0000000000000000       0x33 Hw_DMA.o
 .debug_frame   0x0000000000000000       0x54 Hw_DMA.o
 .text          0x0000000000000000        0x0 Hw_Adc.o
 .data          0x0000000000000000        0x0 Hw_Adc.o
 .bss           0x0000000000000000        0x0 Hw_Adc.o
 .text.Hw_Adc_PortInit
                0x0000000000000000       0x1c Hw_Adc.o
 .text.Hw_Adc_StartConv
                0x0000000000000000       0x60 Hw_Adc.o
 .text.Hw_Adc_GetConv
                0x0000000000000000       0x24 Hw_Adc.o
 .text          0x0000000000000000        0x0 Hw_Led.o
 .data          0x0000000000000000        0x0 Hw_Led.o
 .bss           0x0000000000000000        0x0 Hw_Led.o
 .text.Hw_Led_On
                0x0000000000000000       0x3c Hw_Led.o
 .text.Hw_Led_Wait
                0x0000000000000000       0x1c Hw_Led.o
 .text          0x0000000000000000        0x0 Hw_VCom.o
 .data          0x0000000000000000        0x0 Hw_VCom.o
 .bss           0x0000000000000000        0x0 Hw_VCom.o
 .text.Hw_VCom_Getch
                0x0000000000000000       0x30 Hw_VCom.o
 .text.Hw_VCom_Putch
                0x0000000000000000       0x10 Hw_VCom.o
 .text          0x0000000000000000        0x0 Hw_Si47xx.o
 .data          0x0000000000000000        0x0 Hw_Si47xx.o
 .bss           0x0000000000000000        0x0 Hw_Si47xx.o
 .text.Hw_Si47xx_Reset
                0x0000000000000000       0x40 Hw_Si47xx.o
 .text.Hw_Si47xx_Init
                0x0000000000000000       0x34 Hw_Si47xx.o
 .text.Hw_Si47xx_ReadResp
                0x0000000000000000       0x14 Hw_Si47xx.o
 .text.Hw_Si47xx_SendCommand
                0x0000000000000000       0x18 Hw_Si47xx.o
 .text.Hw_Si47xx_ReceiveResponse
                0x0000000000000000       0x5c Hw_Si47xx.o
 .text.Hw_Si47xx_POWER_UP
                0x0000000000000000       0x4c Hw_Si47xx.o
 .text.Hw_Si47xx_WaitForCTS
                0x0000000000000000       0x1c Hw_Si47xx.o
 .text.Hw_Si47xx_CommandResp
                0x0000000000000000       0x50 Hw_Si47xx.o
 .text.Hw_Si47xx_AM_TUNE_STATUS
                0x0000000000000000       0x2c Hw_Si47xx.o
 .text.Hw_Si47xx_FM_TUNE_STATUS
                0x0000000000000000       0x2c Hw_Si47xx.o
 .text.Hw_Si47xx_GET_INT_STATUS
                0x0000000000000000       0x30 Hw_Si47xx.o
 .text.Hw_Si47xx_WaitForSTC
                0x0000000000000000       0x34 Hw_Si47xx.o
 .text.Hw_Si47xx_AM_SEEK_START
                0x0000000000000000       0x30 Hw_Si47xx.o
 .text.Hw_Si47xx_FM_SEEK_START
                0x0000000000000000       0x30 Hw_Si47xx.o
 .text.Hw_Si47xx_AM_TUNE_FREQ
                0x0000000000000000       0x44 Hw_Si47xx.o
 .text.Hw_Si47xx_FM_TUNE_FREQ
                0x0000000000000000       0x40 Hw_Si47xx.o
 .text.Hw_Si47xx_GET_PROPERTY
                0x0000000000000000       0x48 Hw_Si47xx.o
 .text.Hw_Si47xx_SET_PROPERTY
                0x0000000000000000       0x50 Hw_Si47xx.o
 .text.Hw_Si47xx_AM_Config
                0x0000000000000000       0xa4 Hw_Si47xx.o
 .text.Hw_Si47xx_FM_Config
                0x0000000000000000       0xa4 Hw_Si47xx.o
 .debug_info    0x0000000000000000      0xf03 Hw_Si47xx.o
 .debug_abbrev  0x0000000000000000      0x2a1 Hw_Si47xx.o
 .debug_loc     0x0000000000000000      0x9cd Hw_Si47xx.o
 .debug_aranges
                0x0000000000000000       0xb8 Hw_Si47xx.o
 .debug_ranges  0x0000000000000000       0xc0 Hw_Si47xx.o
 .debug_line    0x0000000000000000      0x2fc Hw_Si47xx.o
 .debug_str     0x0000000000000000      0x320 Hw_Si47xx.o
 .comment       0x0000000000000000       0x12 Hw_Si47xx.o
 .ARM.attributes
                0x0000000000000000       0x33 Hw_Si47xx.o
 .debug_frame   0x0000000000000000      0x2b4 Hw_Si47xx.o
 COMMON         0x0000000000000000       0x10 Hw_Si47xx.o
 .text          0x0000000000000000        0x0 Hw_N5110G.o
 .data          0x0000000000000000        0x0 Hw_N5110G.o
 .bss           0x0000000000000000        0x0 Hw_N5110G.o
 .text.Hw_N5100G_FrameTick
                0x0000000000000000       0x50 Hw_N5110G.o
 .text.Hw_N5110G_Reset
                0x0000000000000000       0x28 Hw_N5110G.o
 .text.Hw_N5110G_WriteCmd
                0x0000000000000000       0x2c Hw_N5110G.o
 .text.Hw_N5110G_WriteByte
                0x0000000000000000       0x3c Hw_N5110G.o
 .text.Hw_N5110G_Goto
                0x0000000000000000       0x20 Hw_N5110G.o
 .text.Hw_N5110G_Init
                0x0000000000000000       0xe0 Hw_N5110G.o
 .text.Hw_N5110G_WriteChar
                0x0000000000000000       0x58 Hw_N5110G.o
 .text.Hw_N5110G_Clear
                0x0000000000000000       0x24 Hw_N5110G.o
 .text.Hw_N5110G_WriteStr
                0x0000000000000000       0x70 Hw_N5110G.o
 .text.Hw_N5110G_Print
                0x0000000000000000       0x60 Hw_N5110G.o
 .text.Hw_N5110G_DrawRequest
                0x0000000000000000       0x10 Hw_N5110G.o
 .text.Hw_N5110G_SetPixel
                0x0000000000000000       0x24 Hw_N5110G.o
 .text.Hw_N5110G_ClrPixel
                0x0000000000000000       0x24 Hw_N5110G.o
 .text.Hw_N5110G_XorPixel
                0x0000000000000000       0x24 Hw_N5110G.o
 .text.Hw_N5110G_GetPixel
                0x0000000000000000       0x20 Hw_N5110G.o
 .text.Hw_N5110G_DrawClear
                0x0000000000000000       0x18 Hw_N5110G.o
 .text.Hw_N5110G_DrawClearRect
                0x0000000000000000       0x4c Hw_N5110G.o
 .text.Hw_N5110G_DrawPrint
                0x0000000000000000       0x50 Hw_N5110G.o
 .text.Hw_N5110G_DrawCircle
                0x0000000000000000      0x3a4 Hw_N5110G.o
 .data.Hw_N5110G_Font6_8
                0x0000000000000000      0x228 Hw_N5110G.o
 .debug_info    0x0000000000000000     0x1293 Hw_N5110G.o
 .debug_abbrev  0x0000000000000000      0x39f Hw_N5110G.o
 .debug_loc     0x0000000000000000     0x2e06 Hw_N5110G.o
 .debug_aranges
                0x0000000000000000       0xb0 Hw_N5110G.o
 .debug_ranges  0x0000000000000000      0xb40 Hw_N5110G.o
 .debug_line    0x0000000000000000      0x4b4 Hw_N5110G.o
 .debug_str     0x0000000000000000      0x30e Hw_N5110G.o
 .comment       0x0000000000000000       0x12 Hw_N5110G.o
 .ARM.attributes
                0x0000000000000000       0x33 Hw_N5110G.o
 .debug_frame   0x0000000000000000      0x230 Hw_N5110G.o
 COMMON         0x0000000000000000      0x3f8 Hw_N5110G.o
 .text          0x0000000000000000        0x0 Hw_VBus.o
 .data          0x0000000000000000        0x0 Hw_VBus.o
 .bss           0x0000000000000000        0x0 Hw_VBus.o
 .text.Hw_VBus_SetData
                0x0000000000000000       0x14 Hw_VBus.o
 .text.Hw_VBus_GetData
                0x0000000000000000       0x10 Hw_VBus.o
 .text          0x0000000000000000        0x0 Hw_KeyPad.o
 .data          0x0000000000000000        0x0 Hw_KeyPad.o
 .bss           0x0000000000000000        0x0 Hw_KeyPad.o
 .text.Hw_KeyPad_ReadCode
                0x0000000000000000        0xc Hw_KeyPad.o
 .text.Hw_KeyPad_GetPressedNum
                0x0000000000000000       0x14 Hw_KeyPad.o
 .bss.Hw_KeyPad_EventKeyNum
                0x0000000000000000        0x4 Hw_KeyPad.o
 .text          0x0000000000000000        0x0 Hw_7Seg.o
 .data          0x0000000000000000        0x0 Hw_7Seg.o
 .bss           0x0000000000000000        0x0 Hw_7Seg.o
 .text.Hw_7Seg_SetDot
                0x0000000000000000       0x20 Hw_7Seg.o
 .text          0x0000000000000000        0x0 Hw_CLcd.o
 .data          0x0000000000000000        0x0 Hw_CLcd.o
 .bss           0x0000000000000000        0x0 Hw_CLcd.o
 .text.Hw_CLcd_Delay
                0x0000000000000000       0x10 Hw_CLcd.o
 .text.Hw_CLcd_WriteChar
                0x0000000000000000       0x10 Hw_CLcd.o
 .text          0x0000000000000000        0x0 Hw_Cds.o
 .data          0x0000000000000000        0x0 Hw_Cds.o
 .bss           0x0000000000000000        0x0 Hw_Cds.o
 .text          0x0000000000000000        0x0 Hw_DHT11.o
 .data          0x0000000000000000        0x0 Hw_DHT11.o
 .bss           0x0000000000000000        0x0 Hw_DHT11.o
 .text.Hw_DHT11_Start
                0x0000000000000000       0x1c Hw_DHT11.o
 .text.Hw_DHT11_Stop
                0x0000000000000000       0x10 Hw_DHT11.o
 .text.Hw_DHT11_Timer_Setup
                0x0000000000000000       0x28 Hw_DHT11.o
 .text.Hw_DHT11_IO_Setup
                0x0000000000000000       0x30 Hw_DHT11.o
 .text.Hw_DHT11_IO_EnableISR
                0x0000000000000000       0x24 Hw_DHT11.o
 .text.Hw_DHT11_IO_DisableISR
                0x0000000000000000       0x24 Hw_DHT11.o
 .text.Hw_DHT11_IO_SetOutput
                0x0000000000000000       0x20 Hw_DHT11.o
 .text.Hw_DHT11_IO_SetInput
                0x0000000000000000       0x20 Hw_DHT11.o
 .text.Hw_DHT11_IO_SetHigh
                0x0000000000000000       0x14 Hw_DHT11.o
 .text.Hw_DHT11_IO_SetLow
                0x0000000000000000       0x14 Hw_DHT11.o
 .text.Hw_DHT11_IO_Get
                0x0000000000000000       0x10 Hw_DHT11.o
 .text          0x0000000000000000        0x0 usb_desc.o
 .data          0x0000000000000000        0x0 usb_desc.o
 .bss           0x0000000000000000        0x0 usb_desc.o
 .text          0x0000000000000000        0x0 usb_endp.o
 .data          0x0000000000000000        0x0 usb_endp.o
 .bss           0x0000000000000000        0x0 usb_endp.o
 .text          0x0000000000000000        0x0 usb_istr.o
 .data          0x0000000000000000        0x0 usb_istr.o
 .bss           0x0000000000000000        0x0 usb_istr.o
 .text          0x0000000000000000        0x0 usb_prop.o
 .data          0x0000000000000000        0x0 usb_prop.o
 .bss           0x0000000000000000        0x0 usb_prop.o
 .text          0x0000000000000000        0x0 usb_pwr.o
 .data          0x0000000000000000        0x0 usb_pwr.o
 .bss           0x0000000000000000        0x0 usb_pwr.o
 .text.PowerOff
                0x0000000000000000       0x30 usb_pwr.o
 .text          0x0000000000000000        0x0 hw_config.o
 .data          0x0000000000000000        0x0 hw_config.o
 .bss           0x0000000000000000        0x0 hw_config.o
 .text.Enter_LowPowerMode
                0x0000000000000000       0x10 hw_config.o
 .text.USART_To_USB_Send_Data
                0x0000000000000000        0x4 hw_config.o
 .text.USB_Send_Data
                0x0000000000000000       0x38 hw_config.o
 .text          0x0000000000000000        0x0 usb_core.o
 .data          0x0000000000000000        0x0 usb_core.o
 .bss           0x0000000000000000        0x0 usb_core.o
 .text.Standard_SetDeviceFeature
                0x0000000000000000       0x28 usb_core.o
 .text          0x0000000000000000        0x0 usb_init.o
 .data          0x0000000000000000        0x0 usb_init.o
 .bss           0x0000000000000000        0x0 usb_init.o
 .text          0x0000000000000000        0x0 usb_mem.o
 .data          0x0000000000000000        0x0 usb_mem.o
 .bss           0x0000000000000000        0x0 usb_mem.o
 .text          0x0000000000000000        0x0 usb_regs.o
 .data          0x0000000000000000        0x0 usb_regs.o
 .bss           0x0000000000000000        0x0 usb_regs.o
 .text.SetCNTR  0x0000000000000000        0xc usb_regs.o
 .text.GetCNTR  0x0000000000000000       0x10 usb_regs.o
 .text.SetISTR  0x0000000000000000        0xc usb_regs.o
 .text.GetISTR  0x0000000000000000       0x10 usb_regs.o
 .text.GetFNR   0x0000000000000000       0x10 usb_regs.o
 .text.SetDADDR
                0x0000000000000000        0xc usb_regs.o
 .text.GetDADDR
                0x0000000000000000       0x10 usb_regs.o
 .text.GetBTABLE
                0x0000000000000000       0x10 usb_regs.o
 .text.SetENDPOINT
                0x0000000000000000       0x10 usb_regs.o
 .text.GetENDPOINT
                0x0000000000000000       0x10 usb_regs.o
 .text.GetEPType
                0x0000000000000000       0x14 usb_regs.o
 .text.SetDouBleBuffEPStall
                0x0000000000000000       0x28 usb_regs.o
 .text.GetEPTxStatus
                0x0000000000000000       0x14 usb_regs.o
 .text.GetEPRxStatus
                0x0000000000000000       0x14 usb_regs.o
 .text.SetEP_KIND
                0x0000000000000000       0x20 usb_regs.o
 .text.ClearEP_KIND
                0x0000000000000000       0x20 usb_regs.o
 .text.Set_Status_Out
                0x0000000000000000       0x20 usb_regs.o
 .text.SetEPDoubleBuff
                0x0000000000000000       0x20 usb_regs.o
 .text.ClearEPDoubleBuff
                0x0000000000000000       0x20 usb_regs.o
 .text.GetTxStallStatus
                0x0000000000000000       0x1c usb_regs.o
 .text.GetRxStallStatus
                0x0000000000000000       0x1c usb_regs.o
 .text.ClearEP_CTR_RX
                0x0000000000000000       0x18 usb_regs.o
 .text.ClearEP_CTR_TX
                0x0000000000000000       0x18 usb_regs.o
 .text.ToggleDTOG_RX
                0x0000000000000000       0x20 usb_regs.o
 .text.ToggleDTOG_TX
                0x0000000000000000       0x20 usb_regs.o
 .text.SetEPAddress
                0x0000000000000000       0x20 usb_regs.o
 .text.GetEPAddress
                0x0000000000000000       0x14 usb_regs.o
 .text.SetEPCountRxReg
                0x0000000000000000       0x28 usb_regs.o
 .text.GetEPTxCount
                0x0000000000000000       0x24 usb_regs.o
 .text.SetEPDblBuffAddr
                0x0000000000000000       0x44 usb_regs.o
 .text.SetEPDblBuf0Addr
                0x0000000000000000       0x24 usb_regs.o
 .text.SetEPDblBuf1Addr
                0x0000000000000000       0x28 usb_regs.o
 .text.GetEPDblBuf0Addr
                0x0000000000000000       0x20 usb_regs.o
 .text.GetEPDblBuf1Addr
                0x0000000000000000       0x20 usb_regs.o
 .text.SetEPDblBuffCount
                0x0000000000000000       0xb4 usb_regs.o
 .text.SetEPDblBuf0Count
                0x0000000000000000       0x6c usb_regs.o
 .text.SetEPDblBuf1Count
                0x0000000000000000       0x6c usb_regs.o
 .text.GetEPDblBuf0Count
                0x0000000000000000       0x24 usb_regs.o
 .text.GetEPDblBuf1Count
                0x0000000000000000       0x24 usb_regs.o
 .text.GetEPDblBufDir
                0x0000000000000000       0x4c usb_regs.o
 .text.FreeUserBuffer
                0x0000000000000000       0x48 usb_regs.o
 .text.ToWord   0x0000000000000000        0x8 usb_regs.o
 .text          0x0000000000000000        0x0 usb_sil.o
 .data          0x0000000000000000        0x0 usb_sil.o
 .bss           0x0000000000000000        0x0 usb_sil.o
 .text.USB_SIL_Write
                0x0000000000000000       0x38 usb_sil.o
 .text          0x0000000000000000        0x0 usb_int.o
 .data          0x0000000000000000        0x0 usb_int.o
 .bss           0x0000000000000000        0x0 usb_int.o
 .text.CTR_HP   0x0000000000000000       0x88 usb_int.o
 .text          0x0000000000000000        0x0 /opt/local/lib/gcc/arm-none-eabi/4.7.2/../../../../arm-none-eabi/lib/thumb/libc.a(lib_a-ctype_.o)
 .bss           0x0000000000000000        0x0 /opt/local/lib/gcc/arm-none-eabi/4.7.2/../../../../arm-none-eabi/lib/thumb/libc.a(lib_a-ctype_.o)
 .data          0x0000000000000000        0x0 /opt/local/lib/gcc/arm-none-eabi/4.7.2/../../../../arm-none-eabi/lib/thumb/libc.a(lib_a-sscanf.o)
 .bss           0x0000000000000000        0x0 /opt/local/lib/gcc/arm-none-eabi/4.7.2/../../../../arm-none-eabi/lib/thumb/libc.a(lib_a-sscanf.o)
 .data          0x0000000000000000        0x0 /opt/local/lib/gcc/arm-none-eabi/4.7.2/../../../../arm-none-eabi/lib/thumb/libc.a(lib_a-stdio.o)
 .bss           0x0000000000000000        0x0 /opt/local/lib/gcc/arm-none-eabi/4.7.2/../../../../arm-none-eabi/lib/thumb/libc.a(lib_a-stdio.o)
 .data          0x0000000000000000        0x0 /opt/local/lib/gcc/arm-none-eabi/4.7.2/../../../../arm-none-eabi/lib/thumb/libc.a(lib_a-strlen.o)
 .bss           0x0000000000000000        0x0 /opt/local/lib/gcc/arm-none-eabi/4.7.2/../../../../arm-none-eabi/lib/thumb/libc.a(lib_a-strlen.o)
 .data          0x0000000000000000        0x0 /opt/local/lib/gcc/arm-none-eabi/4.7.2/../../../../arm-none-eabi/lib/thumb/libc.a(lib_a-strncmp.o)
 .bss           0x0000000000000000        0x0 /opt/local/lib/gcc/arm-none-eabi/4.7.2/../../../../arm-none-eabi/lib/thumb/libc.a(lib_a-strncmp.o)
 .data          0x0000000000000000        0x0 /opt/local/lib/gcc/arm-none-eabi/4.7.2/../../../../arm-none-eabi/lib/thumb/libc.a(lib_a-svfscanf.o)
 .bss           0x0000000000000000        0x0 /opt/local/lib/gcc/arm-none-eabi/4.7.2/../../../../arm-none-eabi/lib/thumb/libc.a(lib_a-svfscanf.o)
 .data          0x0000000000000000        0x0 /opt/local/lib/gcc/arm-none-eabi/4.7.2/../../../../arm-none-eabi/lib/thumb/libc.a(lib_a-writer.o)
 .bss           0x0000000000000000        0x0 /opt/local/lib/gcc/arm-none-eabi/4.7.2/../../../../arm-none-eabi/lib/thumb/libc.a(lib_a-writer.o)
 .data          0x0000000000000000        0x0 /opt/local/lib/gcc/arm-none-eabi/4.7.2/../../../../arm-none-eabi/lib/thumb/libc.a(lib_a-closer.o)
 .bss           0x0000000000000000        0x0 /opt/local/lib/gcc/arm-none-eabi/4.7.2/../../../../arm-none-eabi/lib/thumb/libc.a(lib_a-closer.o)
 .text          0x0000000000000000        0x0 /opt/local/lib/gcc/arm-none-eabi/4.7.2/../../../../arm-none-eabi/lib/thumb/libc.a(lib_a-impure.o)
 .bss           0x0000000000000000        0x0 /opt/local/lib/gcc/arm-none-eabi/4.7.2/../../../../arm-none-eabi/lib/thumb/libc.a(lib_a-impure.o)
 .data          0x0000000000000000        0x0 /opt/local/lib/gcc/arm-none-eabi/4.7.2/../../../../arm-none-eabi/lib/thumb/libc.a(lib_a-iswspace.o)
 .bss           0x0000000000000000        0x0 /opt/local/lib/gcc/arm-none-eabi/4.7.2/../../../../arm-none-eabi/lib/thumb/libc.a(lib_a-iswspace.o)
 .bss           0x0000000000000000        0xc /opt/local/lib/gcc/arm-none-eabi/4.7.2/../../../../arm-none-eabi/lib/thumb/libc.a(lib_a-locale.o)
 .data          0x0000000000000000        0x0 /opt/local/lib/gcc/arm-none-eabi/4.7.2/../../../../arm-none-eabi/lib/thumb/libc.a(lib_a-lseekr.o)
 .bss           0x0000000000000000        0x0 /opt/local/lib/gcc/arm-none-eabi/4.7.2/../../../../arm-none-eabi/lib/thumb/libc.a(lib_a-lseekr.o)
 .data          0x0000000000000000        0x0 /opt/local/lib/gcc/arm-none-eabi/4.7.2/../../../../arm-none-eabi/lib/thumb/libc.a(lib_a-mbrtowc.o)
 .bss           0x0000000000000000        0x0 /opt/local/lib/gcc/arm-none-eabi/4.7.2/../../../../arm-none-eabi/lib/thumb/libc.a(lib_a-mbrtowc.o)
 .bss           0x0000000000000000        0x0 /opt/local/lib/gcc/arm-none-eabi/4.7.2/../../../../arm-none-eabi/lib/thumb/libc.a(lib_a-mbtowc_r.o)
 .data          0x0000000000000000        0x0 /opt/local/lib/gcc/arm-none-eabi/4.7.2/../../../../arm-none-eabi/lib/thumb/libc.a(lib_a-memset.o)
 .bss           0x0000000000000000        0x0 /opt/local/lib/gcc/arm-none-eabi/4.7.2/../../../../arm-none-eabi/lib/thumb/libc.a(lib_a-memset.o)
 .data          0x0000000000000000        0x0 /opt/local/lib/gcc/arm-none-eabi/4.7.2/../../../../arm-none-eabi/lib/thumb/libc.a(lib_a-readr.o)
 .bss           0x0000000000000000        0x0 /opt/local/lib/gcc/arm-none-eabi/4.7.2/../../../../arm-none-eabi/lib/thumb/libc.a(lib_a-readr.o)
 .text          0x0000000000000000      0x110 /opt/local/lib/gcc/arm-none-eabi/4.7.2/../../../../arm-none-eabi/lib/thumb/libc.a(lib_a-reent.o)
 .data          0x0000000000000000        0x0 /opt/local/lib/gcc/arm-none-eabi/4.7.2/../../../../arm-none-eabi/lib/thumb/libc.a(lib_a-reent.o)
 .bss           0x0000000000000000        0x0 /opt/local/lib/gcc/arm-none-eabi/4.7.2/../../../../arm-none-eabi/lib/thumb/libc.a(lib_a-reent.o)
 .data          0x0000000000000000        0x0 /opt/local/lib/gcc/arm-none-eabi/4.7.2/../../../../arm-none-eabi/lib/thumb/libc.a(lib_a-s_fpclassify.o)
 .bss           0x0000000000000000        0x0 /opt/local/lib/gcc/arm-none-eabi/4.7.2/../../../../arm-none-eabi/lib/thumb/libc.a(lib_a-s_fpclassify.o)
 .data          0x0000000000000000        0x0 /opt/local/lib/gcc/arm-none-eabi/4.7.2/../../../../arm-none-eabi/lib/thumb/libc.a(lib_a-sccl.o)
 .bss           0x0000000000000000        0x0 /opt/local/lib/gcc/arm-none-eabi/4.7.2/../../../../arm-none-eabi/lib/thumb/libc.a(lib_a-sccl.o)
 .data          0x0000000000000000        0x0 /opt/local/lib/gcc/arm-none-eabi/4.7.2/../../../../arm-none-eabi/lib/thumb/libc.a(lib_a-sf_nan.o)
 .bss           0x0000000000000000        0x0 /opt/local/lib/gcc/arm-none-eabi/4.7.2/../../../../arm-none-eabi/lib/thumb/libc.a(lib_a-sf_nan.o)
 .data          0x0000000000000000        0x0 /opt/local/lib/gcc/arm-none-eabi/4.7.2/../../../../arm-none-eabi/lib/thumb/libc.a(lib_a-sprintf.o)
 .bss           0x0000000000000000        0x0 /opt/local/lib/gcc/arm-none-eabi/4.7.2/../../../../arm-none-eabi/lib/thumb/libc.a(lib_a-sprintf.o)
 .data          0x0000000000000000        0x0 /opt/local/lib/gcc/arm-none-eabi/4.7.2/../../../../arm-none-eabi/lib/thumb/libc.a(lib_a-strcmp.o)
 .bss           0x0000000000000000        0x0 /opt/local/lib/gcc/arm-none-eabi/4.7.2/../../../../arm-none-eabi/lib/thumb/libc.a(lib_a-strcmp.o)
 .bss           0x0000000000000000        0x0 /opt/local/lib/gcc/arm-none-eabi/4.7.2/../../../../arm-none-eabi/lib/thumb/libc.a(lib_a-strtod.o)
 .data          0x0000000000000000        0x0 /opt/local/lib/gcc/arm-none-eabi/4.7.2/../../../../arm-none-eabi/lib/thumb/libc.a(lib_a-strtol.o)
 .bss           0x0000000000000000        0x0 /opt/local/lib/gcc/arm-none-eabi/4.7.2/../../../../arm-none-eabi/lib/thumb/libc.a(lib_a-strtol.o)
 .data          0x0000000000000000        0x0 /opt/local/lib/gcc/arm-none-eabi/4.7.2/../../../../arm-none-eabi/lib/thumb/libc.a(lib_a-strtoul.o)
 .bss           0x0000000000000000        0x0 /opt/local/lib/gcc/arm-none-eabi/4.7.2/../../../../arm-none-eabi/lib/thumb/libc.a(lib_a-strtoul.o)
 .data          0x0000000000000000        0x0 /opt/local/lib/gcc/arm-none-eabi/4.7.2/../../../../arm-none-eabi/lib/thumb/libc.a(lib_a-svfiscanf.o)
 .bss           0x0000000000000000        0x0 /opt/local/lib/gcc/arm-none-eabi/4.7.2/../../../../arm-none-eabi/lib/thumb/libc.a(lib_a-svfiscanf.o)
 .data          0x0000000000000000        0x0 /opt/local/lib/gcc/arm-none-eabi/4.7.2/../../../../arm-none-eabi/lib/thumb/libc.a(lib_a-svfprintf.o)
 .bss           0x0000000000000000        0x0 /opt/local/lib/gcc/arm-none-eabi/4.7.2/../../../../arm-none-eabi/lib/thumb/libc.a(lib_a-svfprintf.o)
 .data          0x0000000000000000        0x0 /opt/local/lib/gcc/arm-none-eabi/4.7.2/../../../../arm-none-eabi/lib/thumb/libc.a(lib_a-syscalls.o)
 .data          0x0000000000000000        0x0 /opt/local/lib/gcc/arm-none-eabi/4.7.2/../../../../arm-none-eabi/lib/thumb/libc.a(lib_a-ungetc.o)
 .bss           0x0000000000000000        0x0 /opt/local/lib/gcc/arm-none-eabi/4.7.2/../../../../arm-none-eabi/lib/thumb/libc.a(lib_a-ungetc.o)
 .data          0x0000000000000000        0x0 /opt/local/lib/gcc/arm-none-eabi/4.7.2/../../../../arm-none-eabi/lib/thumb/libc.a(lib_a-dtoa.o)
 .bss           0x0000000000000000        0x0 /opt/local/lib/gcc/arm-none-eabi/4.7.2/../../../../arm-none-eabi/lib/thumb/libc.a(lib_a-dtoa.o)
 .data          0x0000000000000000        0x0 /opt/local/lib/gcc/arm-none-eabi/4.7.2/../../../../arm-none-eabi/lib/thumb/libc.a(lib_a-errno.o)
 .bss           0x0000000000000000        0x0 /opt/local/lib/gcc/arm-none-eabi/4.7.2/../../../../arm-none-eabi/lib/thumb/libc.a(lib_a-errno.o)
 .data          0x0000000000000000        0x0 /opt/local/lib/gcc/arm-none-eabi/4.7.2/../../../../arm-none-eabi/lib/thumb/libc.a(lib_a-fflush.o)
 .bss           0x0000000000000000        0x0 /opt/local/lib/gcc/arm-none-eabi/4.7.2/../../../../arm-none-eabi/lib/thumb/libc.a(lib_a-fflush.o)
 .data          0x0000000000000000        0x0 /opt/local/lib/gcc/arm-none-eabi/4.7.2/../../../../arm-none-eabi/lib/thumb/libc.a(lib_a-findfp.o)
 .bss           0x0000000000000000        0x0 /opt/local/lib/gcc/arm-none-eabi/4.7.2/../../../../arm-none-eabi/lib/thumb/libc.a(lib_a-findfp.o)
 .data          0x0000000000000000        0x0 /opt/local/lib/gcc/arm-none-eabi/4.7.2/../../../../arm-none-eabi/lib/thumb/libc.a(lib_a-freer.o)
 .bss           0x0000000000000000        0x0 /opt/local/lib/gcc/arm-none-eabi/4.7.2/../../../../arm-none-eabi/lib/thumb/libc.a(lib_a-freer.o)
 .data          0x0000000000000000        0x0 /opt/local/lib/gcc/arm-none-eabi/4.7.2/../../../../arm-none-eabi/lib/thumb/libc.a(lib_a-fwalk.o)
 .bss           0x0000000000000000        0x0 /opt/local/lib/gcc/arm-none-eabi/4.7.2/../../../../arm-none-eabi/lib/thumb/libc.a(lib_a-fwalk.o)
 .data          0x0000000000000000        0x0 /opt/local/lib/gcc/arm-none-eabi/4.7.2/../../../../arm-none-eabi/lib/thumb/libc.a(lib_a-gdtoa-gethex.o)
 .bss           0x0000000000000000        0x0 /opt/local/lib/gcc/arm-none-eabi/4.7.2/../../../../arm-none-eabi/lib/thumb/libc.a(lib_a-gdtoa-gethex.o)
 .data          0x0000000000000000        0x0 /opt/local/lib/gcc/arm-none-eabi/4.7.2/../../../../arm-none-eabi/lib/thumb/libc.a(lib_a-gdtoa-hexnan.o)
 .bss           0x0000000000000000        0x0 /opt/local/lib/gcc/arm-none-eabi/4.7.2/../../../../arm-none-eabi/lib/thumb/libc.a(lib_a-gdtoa-hexnan.o)
 .data          0x0000000000000000        0x0 /opt/local/lib/gcc/arm-none-eabi/4.7.2/../../../../arm-none-eabi/lib/thumb/libc.a(lib_a-memchr-stub.o)
 .bss           0x0000000000000000        0x0 /opt/local/lib/gcc/arm-none-eabi/4.7.2/../../../../arm-none-eabi/lib/thumb/libc.a(lib_a-memchr-stub.o)
 .data          0x0000000000000000        0x0 /opt/local/lib/gcc/arm-none-eabi/4.7.2/../../../../arm-none-eabi/lib/thumb/libc.a(lib_a-memcpy-stub.o)
 .bss           0x0000000000000000        0x0 /opt/local/lib/gcc/arm-none-eabi/4.7.2/../../../../arm-none-eabi/lib/thumb/libc.a(lib_a-memcpy-stub.o)
 .data          0x0000000000000000        0x0 /opt/local/lib/gcc/arm-none-eabi/4.7.2/../../../../arm-none-eabi/lib/thumb/libc.a(lib_a-mlock.o)
 .bss           0x0000000000000000        0x0 /opt/local/lib/gcc/arm-none-eabi/4.7.2/../../../../arm-none-eabi/lib/thumb/libc.a(lib_a-mlock.o)
 .data          0x0000000000000000        0x0 /opt/local/lib/gcc/arm-none-eabi/4.7.2/../../../../arm-none-eabi/lib/thumb/libc.a(lib_a-mprec.o)
 .bss           0x0000000000000000        0x0 /opt/local/lib/gcc/arm-none-eabi/4.7.2/../../../../arm-none-eabi/lib/thumb/libc.a(lib_a-mprec.o)
 .data          0x0000000000000000        0x0 /opt/local/lib/gcc/arm-none-eabi/4.7.2/../../../../arm-none-eabi/lib/thumb/libc.a(lib_a-reallocr.o)
 .bss           0x0000000000000000        0x0 /opt/local/lib/gcc/arm-none-eabi/4.7.2/../../../../arm-none-eabi/lib/thumb/libc.a(lib_a-reallocr.o)
 .data          0x0000000000000000        0x0 /opt/local/lib/gcc/arm-none-eabi/4.7.2/../../../../arm-none-eabi/lib/thumb/libc.a(lib_a-sbrkr.o)
 .bss           0x0000000000000000        0x0 /opt/local/lib/gcc/arm-none-eabi/4.7.2/../../../../arm-none-eabi/lib/thumb/libc.a(lib_a-sbrkr.o)
 .data          0x0000000000000000        0x0 /opt/local/lib/gcc/arm-none-eabi/4.7.2/../../../../arm-none-eabi/lib/thumb/libc.a(lib_a-svfiprintf.o)
 .bss           0x0000000000000000        0x0 /opt/local/lib/gcc/arm-none-eabi/4.7.2/../../../../arm-none-eabi/lib/thumb/libc.a(lib_a-svfiprintf.o)
 .data          0x0000000000000000        0x0 /opt/local/lib/gcc/arm-none-eabi/4.7.2/../../../../arm-none-eabi/lib/thumb/libc.a(lib_a-callocr.o)
 .bss           0x0000000000000000        0x0 /opt/local/lib/gcc/arm-none-eabi/4.7.2/../../../../arm-none-eabi/lib/thumb/libc.a(lib_a-callocr.o)
 .data          0x0000000000000000        0x0 /opt/local/lib/gcc/arm-none-eabi/4.7.2/../../../../arm-none-eabi/lib/thumb/libc.a(lib_a-fclose.o)
 .bss           0x0000000000000000        0x0 /opt/local/lib/gcc/arm-none-eabi/4.7.2/../../../../arm-none-eabi/lib/thumb/libc.a(lib_a-fclose.o)
 .data          0x0000000000000000        0x0 /opt/local/lib/gcc/arm-none-eabi/4.7.2/../../../../arm-none-eabi/lib/thumb/libc.a(lib_a-memmove.o)
 .bss           0x0000000000000000        0x0 /opt/local/lib/gcc/arm-none-eabi/4.7.2/../../../../arm-none-eabi/lib/thumb/libc.a(lib_a-memmove.o)
 .data          0x0000000000000000        0x0 /opt/local/lib/gcc/arm-none-eabi/4.7.2/thumb/libgcc.a(_udivsi3.o)
 .bss           0x0000000000000000        0x0 /opt/local/lib/gcc/arm-none-eabi/4.7.2/thumb/libgcc.a(_udivsi3.o)
 .data          0x0000000000000000        0x0 /opt/local/lib/gcc/arm-none-eabi/4.7.2/thumb/libgcc.a(_divsi3.o)
 .bss           0x0000000000000000        0x0 /opt/local/lib/gcc/arm-none-eabi/4.7.2/thumb/libgcc.a(_divsi3.o)
 .data          0x0000000000000000        0x0 /opt/local/lib/gcc/arm-none-eabi/4.7.2/thumb/libgcc.a(_dvmd_tls.o)
 .bss           0x0000000000000000        0x0 /opt/local/lib/gcc/arm-none-eabi/4.7.2/thumb/libgcc.a(_dvmd_tls.o)
 .data          0x0000000000000000        0x0 /opt/local/lib/gcc/arm-none-eabi/4.7.2/thumb/libgcc.a(_arm_addsubdf3.o)
 .bss           0x0000000000000000        0x0 /opt/local/lib/gcc/arm-none-eabi/4.7.2/thumb/libgcc.a(_arm_addsubdf3.o)
 .data          0x0000000000000000        0x0 /opt/local/lib/gcc/arm-none-eabi/4.7.2/thumb/libgcc.a(_arm_muldivdf3.o)
 .bss           0x0000000000000000        0x0 /opt/local/lib/gcc/arm-none-eabi/4.7.2/thumb/libgcc.a(_arm_muldivdf3.o)
 .data          0x0000000000000000        0x0 /opt/local/lib/gcc/arm-none-eabi/4.7.2/thumb/libgcc.a(_arm_cmpdf2.o)
 .bss           0x0000000000000000        0x0 /opt/local/lib/gcc/arm-none-eabi/4.7.2/thumb/libgcc.a(_arm_cmpdf2.o)
 .data          0x0000000000000000        0x0 /opt/local/lib/gcc/arm-none-eabi/4.7.2/thumb/libgcc.a(_arm_fixdfsi.o)
 .bss           0x0000000000000000        0x0 /opt/local/lib/gcc/arm-none-eabi/4.7.2/thumb/libgcc.a(_arm_fixdfsi.o)
 .data          0x0000000000000000        0x0 /opt/local/lib/gcc/arm-none-eabi/4.7.2/thumb/libgcc.a(_arm_fixunsdfsi.o)
 .bss           0x0000000000000000        0x0 /opt/local/lib/gcc/arm-none-eabi/4.7.2/thumb/libgcc.a(_arm_fixunsdfsi.o)
 .data          0x0000000000000000        0x0 /opt/local/lib/gcc/arm-none-eabi/4.7.2/thumb/libgcc.a(_arm_truncdfsf2.o)
 .bss           0x0000000000000000        0x0 /opt/local/lib/gcc/arm-none-eabi/4.7.2/thumb/libgcc.a(_arm_truncdfsf2.o)

Memory Configuration

Name             Origin             Length             Attributes
RAM              0x0000000020000000 0x0000000000005000 xrw
EXTSRAM          0x0000000068000000 0x0000000000000000 xrw
FLASH            0x0000000008000000 0x000000000001f800 xr
EEMUL            0x000000000801f800 0x0000000000000800 xrw
*default*        0x0000000000000000 0xffffffffffffffff

Linker script and memory map

LOAD main.o
LOAD Ap.o
LOAD Ap_Radio.o
LOAD Ap_StrCmd.o
LOAD Ap_StrCmd_Q.o
LOAD Ap_RadioMenu.o
LOAD Ap_GLcdMenu.o
LOAD Ap_EduMenu.o
LOAD Lb_Util.o
LOAD Lb_Printf.o
LOAD Hw_StartUp.o
LOAD Hw.o
LOAD Hw_Uart.o
LOAD Hw_PLL.o
LOAD Hw_ISR.o
LOAD Hw_Timer.o
LOAD Hw_Uart_Q.o
LOAD Hw_I2C.o
LOAD Hw_I2C_SW.o
LOAD Hw_SPI.o
LOAD Hw_DMA.o
LOAD Hw_Adc.o
LOAD Hw_Led.o
LOAD Hw_VCom.o
LOAD Hw_Si47xx.o
LOAD Hw_N5110G.o
LOAD Hw_VBus.o
LOAD Hw_KeyPad.o
LOAD Hw_7Seg.o
LOAD Hw_CLcd.o
LOAD Hw_Cds.o
LOAD Hw_DHT11.o
LOAD usb_desc.o
LOAD usb_endp.o
LOAD usb_istr.o
LOAD usb_prop.o
LOAD usb_pwr.o
LOAD hw_config.o
LOAD usb_core.o
LOAD usb_init.o
LOAD usb_mem.o
LOAD usb_regs.o
LOAD usb_sil.o
LOAD usb_int.o
LOAD /opt/local/lib/gcc/arm-none-eabi/4.7.2/../../../../arm-none-eabi/lib/thumb/libc.a
LOAD /opt/local/lib/gcc/arm-none-eabi/4.7.2/../../../../arm-none-eabi/lib/thumb/libm.a
LOAD /opt/local/lib/gcc/arm-none-eabi/4.7.2/../../../../arm-none-eabi/lib/thumb/libc.a
LOAD /opt/local/lib/gcc/arm-none-eabi/4.7.2/thumb/libgcc.a
                0x0000000020005000                _estack = (ORIGIN (RAM) + 0x5000)
                0x000000000801f800                _seemul = ORIGIN (EEMUL)
                0x0000000000000100                _Minimum_Stack_Size = 0x100
                0x0000000000000001                ASSERT ((ORIGIN (FLASH) == ALIGN (ORIGIN (FLASH), 0x80)), Start of memory region flash not aligned for startup vector table)

.text           0x0000000008000000     0xf14c
                0x0000000008000000                . = ALIGN (0x80)
                0x0000000000000000                _isr_vectorsflash_offs = (. - 0x8000000)
 *(.isr_vectorsflash)
 .isr_vectorsflash
                0x0000000008000000        0x8 Hw_StartUp.o
                0x0000000008000000                g_pfnVectors
                0x0000000008000008                . = ALIGN (0x4)
 *(.text)
 .text          0x0000000008000008       0xa0 /opt/local/lib/gcc/arm-none-eabi/4.7.2/../../../../arm-none-eabi/lib/thumb/libc.a(lib_a-sscanf.o)
                0x0000000008000008                sscanf
                0x0000000008000058                _sscanf_r
 .text          0x00000000080000a8       0xac /opt/local/lib/gcc/arm-none-eabi/4.7.2/../../../../arm-none-eabi/lib/thumb/libc.a(lib_a-stdio.o)
                0x00000000080000a8                __sread
                0x00000000080000d4                __seofread
                0x00000000080000d8                __swrite
                0x0000000008000114                __sseek
                0x0000000008000144                __sclose
 .text          0x0000000008000154       0x10 /opt/local/lib/gcc/arm-none-eabi/4.7.2/../../../../arm-none-eabi/lib/thumb/libc.a(lib_a-strlen.o)
                0x0000000008000154                strlen
 .text          0x0000000008000164       0xbc /opt/local/lib/gcc/arm-none-eabi/4.7.2/../../../../arm-none-eabi/lib/thumb/libc.a(lib_a-strncmp.o)
                0x0000000008000164                strncmp
 .text          0x0000000008000220      0xe0c /opt/local/lib/gcc/arm-none-eabi/4.7.2/../../../../arm-none-eabi/lib/thumb/libc.a(lib_a-svfscanf.o)
                0x0000000008000220                __ssvfscanf_r
 .text          0x000000000800102c       0x2c /opt/local/lib/gcc/arm-none-eabi/4.7.2/../../../../arm-none-eabi/lib/thumb/libc.a(lib_a-writer.o)
                0x000000000800102c                _write_r
 .text          0x0000000008001058       0x28 /opt/local/lib/gcc/arm-none-eabi/4.7.2/../../../../arm-none-eabi/lib/thumb/libc.a(lib_a-closer.o)
                0x0000000008001058                _close_r
 .text          0x0000000008001080       0x20 /opt/local/lib/gcc/arm-none-eabi/4.7.2/../../../../arm-none-eabi/lib/thumb/libc.a(lib_a-iswspace.o)
                0x0000000008001080                iswspace
 .text          0x00000000080010a0       0xa0 /opt/local/lib/gcc/arm-none-eabi/4.7.2/../../../../arm-none-eabi/lib/thumb/libc.a(lib_a-locale.o)
                0x00000000080010a0                _setlocale_r
                0x00000000080010e8                __locale_charset
                0x00000000080010f0                __locale_mb_cur_max
                0x00000000080010fc                __locale_msgcharset
                0x0000000008001108                __locale_cjk_lang
                0x000000000800110c                _localeconv_r
                0x0000000008001118                setlocale
                0x0000000008001134                localeconv
 .text          0x0000000008001140       0x2c /opt/local/lib/gcc/arm-none-eabi/4.7.2/../../../../arm-none-eabi/lib/thumb/libc.a(lib_a-lseekr.o)
                0x0000000008001140                _lseek_r
 .text          0x000000000800116c       0xf4 /opt/local/lib/gcc/arm-none-eabi/4.7.2/../../../../arm-none-eabi/lib/thumb/libc.a(lib_a-mbrtowc.o)
                0x000000000800116c                _mbrtowc_r
                0x00000000080011d8                mbrtowc
 .text          0x0000000008001260       0x70 /opt/local/lib/gcc/arm-none-eabi/4.7.2/../../../../arm-none-eabi/lib/thumb/libc.a(lib_a-mbtowc_r.o)
                0x0000000008001260                __ascii_mbtowc
                0x0000000008001290                _mbtowc_r
 .text          0x00000000080012d0       0x98 /opt/local/lib/gcc/arm-none-eabi/4.7.2/../../../../arm-none-eabi/lib/thumb/libc.a(lib_a-memset.o)
                0x00000000080012d0                memset
 .text          0x0000000008001368       0x2c /opt/local/lib/gcc/arm-none-eabi/4.7.2/../../../../arm-none-eabi/lib/thumb/libc.a(lib_a-readr.o)
                0x0000000008001368                _read_r
 .text          0x0000000008001394       0x5c /opt/local/lib/gcc/arm-none-eabi/4.7.2/../../../../arm-none-eabi/lib/thumb/libc.a(lib_a-s_fpclassify.o)
                0x0000000008001394                __fpclassifyd
 .text          0x00000000080013f0       0x7c /opt/local/lib/gcc/arm-none-eabi/4.7.2/../../../../arm-none-eabi/lib/thumb/libc.a(lib_a-sccl.o)
                0x00000000080013f0                __sccl
 .text          0x000000000800146c        0x8 /opt/local/lib/gcc/arm-none-eabi/4.7.2/../../../../arm-none-eabi/lib/thumb/libc.a(lib_a-sf_nan.o)
                0x000000000800146c                nanf
 .text          0x0000000008001474       0x84 /opt/local/lib/gcc/arm-none-eabi/4.7.2/../../../../arm-none-eabi/lib/thumb/libc.a(lib_a-sprintf.o)
                0x0000000008001474                _sprintf_r
                0x00000000080014b4                sprintf
 .text          0x00000000080014f8       0x14 /opt/local/lib/gcc/arm-none-eabi/4.7.2/../../../../arm-none-eabi/lib/thumb/libc.a(lib_a-strcmp.o)
                0x00000000080014f8                strcmp
 *fill*         0x000000000800150c        0x4 
 .text          0x0000000008001510      0xf10 /opt/local/lib/gcc/arm-none-eabi/4.7.2/../../../../arm-none-eabi/lib/thumb/libc.a(lib_a-strtod.o)
                0x0000000008001510                _strtod_r
                0x00000000080023d0                strtod
                0x00000000080023ec                strtof
 .text          0x0000000008002420      0x190 /opt/local/lib/gcc/arm-none-eabi/4.7.2/../../../../arm-none-eabi/lib/thumb/libc.a(lib_a-strtol.o)
                0x0000000008002420                _strtol_r
                0x0000000008002590                strtol
 .text          0x00000000080025b0      0x198 /opt/local/lib/gcc/arm-none-eabi/4.7.2/../../../../arm-none-eabi/lib/thumb/libc.a(lib_a-strtoul.o)
                0x00000000080025b0                _strtoul_r
                0x0000000008002728                strtoul
 .text          0x0000000008002748      0xac4 /opt/local/lib/gcc/arm-none-eabi/4.7.2/../../../../arm-none-eabi/lib/thumb/libc.a(lib_a-svfiscanf.o)
                0x0000000008002748                _sungetc_r
                0x00000000080027d0                __ssrefill_r
                0x0000000008002814                _sfread_r
                0x00000000080028a0                __ssvfiscanf_r
 *fill*         0x000000000800320c        0x4 
 .text          0x0000000008003210     0x13a8 /opt/local/lib/gcc/arm-none-eabi/4.7.2/../../../../arm-none-eabi/lib/thumb/libc.a(lib_a-svfprintf.o)
                0x0000000008003210                _svfprintf_r
 .text          0x00000000080045b8      0x618 /opt/local/lib/gcc/arm-none-eabi/4.7.2/../../../../arm-none-eabi/lib/thumb/libc.a(lib_a-syscalls.o)
                0x0000000008004630                initialise_monitor_handles
                0x00000000080046a8                _swiread
                0x00000000080046d0                _read
                0x0000000008004740                _swilseek
                0x00000000080047e8                _lseek
                0x0000000008004800                _swiwrite
                0x0000000008004828                _write
                0x00000000080048a0                _swiopen
                0x0000000008004924                _open
                0x0000000008004940                _swiclose
                0x0000000008004988                _close
                0x00000000080049a0                _kill
                0x00000000080049d0                _exit
                0x00000000080049e8                _getpid
                0x00000000080049ec                _sbrk
                0x0000000008004a24                _fstat
                0x0000000008004a48                _stat
                0x0000000008004a80                _link
                0x0000000008004a88                _unlink
                0x0000000008004abc                _raise
                0x0000000008004ac0                _gettimeofday
                0x0000000008004aec                _times
                0x0000000008004b10                _isatty
                0x0000000008004b3c                _system
                0x0000000008004b90                _rename
 .text          0x0000000008004bd0      0x188 /opt/local/lib/gcc/arm-none-eabi/4.7.2/../../../../arm-none-eabi/lib/thumb/libc.a(lib_a-ungetc.o)
                0x0000000008004bd0                __submore
                0x0000000008004c58                _ungetc_r
                0x0000000008004d3c                ungetc
 .text          0x0000000008004d58     0x10d0 /opt/local/lib/gcc/arm-none-eabi/4.7.2/../../../../arm-none-eabi/lib/thumb/libc.a(lib_a-dtoa.o)
                0x0000000008004eb0                _dtoa_r
 .text          0x0000000008005e28        0xc /opt/local/lib/gcc/arm-none-eabi/4.7.2/../../../../arm-none-eabi/lib/thumb/libc.a(lib_a-errno.o)
                0x0000000008005e28                __errno
 .text          0x0000000008005e34      0x1b8 /opt/local/lib/gcc/arm-none-eabi/4.7.2/../../../../arm-none-eabi/lib/thumb/libc.a(lib_a-fflush.o)
                0x0000000008005e34                __sflush_r
                0x0000000008005f8c                _fflush_r
                0x0000000008005fbc                fflush
 .text          0x0000000008005fec      0x1d8 /opt/local/lib/gcc/arm-none-eabi/4.7.2/../../../../arm-none-eabi/lib/thumb/libc.a(lib_a-findfp.o)
                0x0000000008005ff4                _cleanup_r
                0x0000000008006054                __sfmoreglue
                0x0000000008006084                _cleanup
                0x0000000008006098                __sinit
                0x00000000080060ec                __sfp
                0x000000000800617c                __sfp_lock_acquire
                0x0000000008006180                __sfp_lock_release
                0x0000000008006184                __sinit_lock_acquire
                0x0000000008006188                __sinit_lock_release
                0x000000000800618c                __fp_lock_all
                0x00000000080061a8                __fp_unlock_all
 .text          0x00000000080061c4      0x238 /opt/local/lib/gcc/arm-none-eabi/4.7.2/../../../../arm-none-eabi/lib/thumb/libc.a(lib_a-freer.o)
                0x00000000080061c4                _malloc_trim_r
                0x0000000008006268                _free_r
 .text          0x00000000080063fc       0xb4 /opt/local/lib/gcc/arm-none-eabi/4.7.2/../../../../arm-none-eabi/lib/thumb/libc.a(lib_a-fwalk.o)
                0x00000000080063fc                _fwalk
                0x0000000008006450                _fwalk_reent
 .text          0x00000000080064b0      0x66c /opt/local/lib/gcc/arm-none-eabi/4.7.2/../../../../arm-none-eabi/lib/thumb/libc.a(lib_a-gdtoa-gethex.o)
                0x0000000008006574                __hexdig_init
                0x00000000080065cc                __gethex
 .text          0x0000000008006b1c      0x1dc /opt/local/lib/gcc/arm-none-eabi/4.7.2/../../../../arm-none-eabi/lib/thumb/libc.a(lib_a-gdtoa-hexnan.o)
                0x0000000008006b1c                __hexnan
 .text          0x0000000008006cf8      0x51c /opt/local/lib/gcc/arm-none-eabi/4.7.2/../../../../arm-none-eabi/lib/thumb/libc.a(lib_a-mallocr.o)
                0x0000000008006cf8                _malloc_r
 .text          0x0000000008007214       0x98 /opt/local/lib/gcc/arm-none-eabi/4.7.2/../../../../arm-none-eabi/lib/thumb/libc.a(lib_a-memchr-stub.o)
                0x0000000008007214                memchr
 .text          0x00000000080072ac       0x90 /opt/local/lib/gcc/arm-none-eabi/4.7.2/../../../../arm-none-eabi/lib/thumb/libc.a(lib_a-memcpy-stub.o)
                0x00000000080072ac                memcpy
 .text          0x000000000800733c        0x8 /opt/local/lib/gcc/arm-none-eabi/4.7.2/../../../../arm-none-eabi/lib/thumb/libc.a(lib_a-mlock.o)
                0x000000000800733c                __malloc_lock
                0x0000000008007340                __malloc_unlock
 *fill*         0x0000000008007344        0x4 
 .text          0x0000000008007348      0x970 /opt/local/lib/gcc/arm-none-eabi/4.7.2/../../../../arm-none-eabi/lib/thumb/libc.a(lib_a-mprec.o)
                0x0000000008007348                _Balloc
                0x000000000800739c                _Bfree
                0x00000000080073b4                __multadd
                0x0000000008007460                __s2b
                0x00000000080074fc                __hi0bits
                0x0000000008007534                __lo0bits
                0x0000000008007594                __i2b
                0x00000000080075ac                __multiply
                0x0000000008007710                __pow5mult
                0x00000000080077c0                __lshift
                0x0000000008007890                __mcmp
                0x00000000080078cc                __mdiff
                0x00000000080079bc                __ulp
                0x0000000008007a04                __b2d
                0x0000000008007aa8                __d2b
                0x0000000008007b60                __ratio
                0x0000000008007bd4                _mprec_log10
                0x0000000008007c14                __copybits
                0x0000000008007c5c                __any_on
 .text          0x0000000008007cb8      0x3e8 /opt/local/lib/gcc/arm-none-eabi/4.7.2/../../../../arm-none-eabi/lib/thumb/libc.a(lib_a-reallocr.o)
                0x0000000008007cb8                _realloc_r
 .text          0x00000000080080a0       0x28 /opt/local/lib/gcc/arm-none-eabi/4.7.2/../../../../arm-none-eabi/lib/thumb/libc.a(lib_a-sbrkr.o)
                0x00000000080080a0                _sbrk_r
 .text          0x00000000080080c8      0xa00 /opt/local/lib/gcc/arm-none-eabi/4.7.2/../../../../arm-none-eabi/lib/thumb/libc.a(lib_a-svfiprintf.o)
                0x00000000080080c8                __ssprint_r
                0x00000000080081f8                _svfiprintf_r
 .text          0x0000000008008ac8       0x64 /opt/local/lib/gcc/arm-none-eabi/4.7.2/../../../../arm-none-eabi/lib/thumb/libc.a(lib_a-callocr.o)
                0x0000000008008ac8                _calloc_r
 .text          0x0000000008008b2c       0xb0 /opt/local/lib/gcc/arm-none-eabi/4.7.2/../../../../arm-none-eabi/lib/thumb/libc.a(lib_a-fclose.o)
                0x0000000008008b2c                _fclose_r
                0x0000000008008bc0                fclose
 .text          0x0000000008008bdc       0xb0 /opt/local/lib/gcc/arm-none-eabi/4.7.2/../../../../arm-none-eabi/lib/thumb/libc.a(lib_a-memmove.o)
                0x0000000008008bdc                memmove
 .text          0x0000000008008c8c      0x11c /opt/local/lib/gcc/arm-none-eabi/4.7.2/thumb/libgcc.a(_udivsi3.o)
                0x0000000008008c8c                __udivsi3
                0x0000000008008c8c                __aeabi_uidiv
                0x0000000008008d88                __aeabi_uidivmod
 .text          0x0000000008008da8      0x150 /opt/local/lib/gcc/arm-none-eabi/4.7.2/thumb/libgcc.a(_divsi3.o)
                0x0000000008008da8                __aeabi_idiv
                0x0000000008008da8                __divsi3
                0x0000000008008ed8                __aeabi_idivmod
 .text          0x0000000008008ef8        0x4 /opt/local/lib/gcc/arm-none-eabi/4.7.2/thumb/libgcc.a(_dvmd_tls.o)
                0x0000000008008ef8                __aeabi_ldiv0
                0x0000000008008ef8                __aeabi_idiv0
 .text          0x0000000008008efc      0x41c /opt/local/lib/gcc/arm-none-eabi/4.7.2/thumb/libgcc.a(_arm_addsubdf3.o)
                0x0000000008008efc                __aeabi_drsub
                0x0000000008008f04                __subdf3
                0x0000000008008f04                __aeabi_dsub
                0x0000000008008f08                __aeabi_dadd
                0x0000000008008f08                __adddf3
                0x0000000008009218                __aeabi_ui2d
                0x0000000008009218                __floatunsidf
                0x000000000800923c                __floatsidf
                0x000000000800923c                __aeabi_i2d
                0x0000000008009264                __extendsfdf2
                0x0000000008009264                __aeabi_f2d
                0x00000000080092a4                __aeabi_ul2d
                0x00000000080092a4                __floatundidf
                0x00000000080092b8                __aeabi_l2d
                0x00000000080092b8                __floatdidf
 .text          0x0000000008009318      0x49c /opt/local/lib/gcc/arm-none-eabi/4.7.2/thumb/libgcc.a(_arm_muldivdf3.o)
                0x0000000008009318                __aeabi_dmul
                0x0000000008009318                __muldf3
                0x00000000080095a8                __aeabi_ddiv
                0x00000000080095a8                __divdf3
 .text          0x00000000080097b4      0x144 /opt/local/lib/gcc/arm-none-eabi/4.7.2/thumb/libgcc.a(_arm_cmpdf2.o)
                0x00000000080097b4                __gtdf2
                0x00000000080097b4                __gedf2
                0x00000000080097bc                __ltdf2
                0x00000000080097bc                __ledf2
                0x00000000080097c4                __eqdf2
                0x00000000080097c4                __nedf2
                0x00000000080097c4                __cmpdf2
                0x000000000800984c                __aeabi_cdrcmple
                0x0000000008009868                __aeabi_cdcmple
                0x0000000008009868                __aeabi_cdcmpeq
                0x0000000008009880                __aeabi_dcmpeq
                0x0000000008009898                __aeabi_dcmplt
                0x00000000080098b0                __aeabi_dcmple
                0x00000000080098c8                __aeabi_dcmpge
                0x00000000080098e0                __aeabi_dcmpgt
 .text          0x00000000080098f8       0x5c /opt/local/lib/gcc/arm-none-eabi/4.7.2/thumb/libgcc.a(_arm_fixdfsi.o)
                0x00000000080098f8                __fixdfsi
                0x00000000080098f8                __aeabi_d2iz
 .text          0x0000000008009954       0x54 /opt/local/lib/gcc/arm-none-eabi/4.7.2/thumb/libgcc.a(_arm_fixunsdfsi.o)
                0x0000000008009954                __fixunsdfsi
                0x0000000008009954                __aeabi_d2uiz
 .text          0x00000000080099a8       0xa0 /opt/local/lib/gcc/arm-none-eabi/4.7.2/thumb/libgcc.a(_arm_truncdfsf2.o)
                0x00000000080099a8                __aeabi_d2f
                0x00000000080099a8                __truncdfsf2
 *(.text.*)
 .text.LED_Tick
                0x0000000008009a48       0x10 main.o
                0x0000000008009a48                LED_Tick
 .text.startup.main
                0x0000000008009a58       0x4c main.o
                0x0000000008009a58                main
 .text.Ap_Init  0x0000000008009aa4       0x10 Ap.o
                0x0000000008009aa4                Ap_Init
 .text.Ap_StrCmd_PutFunc
                0x0000000008009ab4       0x14 Ap_StrCmd.o
                0x0000000008009ab4                Ap_StrCmd_PutFunc
 .text.Ap_StrCmd_CallBack_RxdISR
                0x0000000008009ac8       0x8c Ap_StrCmd.o
                0x0000000008009ac8                Ap_StrCmd_CallBack_RxdISR
 .text.Ap_StrCmd_AddCmd
                0x0000000008009b54       0xbc Ap_StrCmd.o
                0x0000000008009b54                Ap_StrCmd_AddCmd
 .text.Ap_StrCmd_Init
                0x0000000008009c10       0xc4 Ap_StrCmd.o
                0x0000000008009c10                Ap_StrCmd_Init
 .text.Ap_StrCmd_Print
                0x0000000008009cd4       0x34 Ap_StrCmd.o
                0x0000000008009cd4                Ap_StrCmd_Print
 .text.Ap_StrCmd_ShowMenuHelp
                0x0000000008009d08       0x74 Ap_StrCmd.o
                0x0000000008009d08                Ap_StrCmd_ShowMenuHelp
 .text.Ap_StrCmd_ShowMenu
                0x0000000008009d7c       0x6c Ap_StrCmd.o
                0x0000000008009d7c                Ap_StrCmd_ShowMenu
 .text.Ap_StrCmd_Printf
                0x0000000008009de8       0x30 Ap_StrCmd.o
                0x0000000008009de8                Ap_StrCmd_Printf
 .text.Ap_StrCmd_Echo
                0x0000000008009e18       0x78 Ap_StrCmd.o
                0x0000000008009e18                Ap_StrCmd_Echo
 .text.Ap_StrCmd_ShowInfo
                0x0000000008009e90       0x64 Ap_StrCmd.o
                0x0000000008009e90                Ap_StrCmd_ShowInfo
 .text.Ap_StrCmd_ExeFunc
                0x0000000008009ef4       0xdc Ap_StrCmd.o
                0x0000000008009ef4                Ap_StrCmd_ExeFunc
 .text.Ap_StrCmd_ExeCmd
                0x0000000008009fd0       0x1c Ap_StrCmd.o
                0x0000000008009fd0                Ap_StrCmd_ExeCmd
 .text.Ap_StrCmd_Q_Init
                0x0000000008009fec       0x18 Ap_StrCmd_Q.o
                0x0000000008009fec                Ap_StrCmd_Q_Init
 .text.Ap_StrCmd_Q_SIZE
                0x000000000800a004       0x38 Ap_StrCmd_Q.o
                0x000000000800a004                Ap_StrCmd_Q_SIZE
 .text.Ap_StrCmd_Q_Push
                0x000000000800a03c       0xac Ap_StrCmd_Q.o
                0x000000000800a03c                Ap_StrCmd_Q_Push
 .text.Ap_StrCmd_Q_Pop
                0x000000000800a0e8       0xac Ap_StrCmd_Q.o
                0x000000000800a0e8                Ap_StrCmd_Q_Pop
 .text.KeyPad_DownKeyEvent
                0x000000000800a194       0x2c Ap_EduMenu.o
                0x000000000800a194                KeyPad_DownKeyEvent
 .text.KeyPad_UpKeyEvent
                0x000000000800a1c0       0x28 Ap_EduMenu.o
                0x000000000800a1c0                KeyPad_UpKeyEvent
 .text.Ap_EduMenu_ShowMenu
                0x000000000800a1e8       0xa4 Ap_EduMenu.o
                0x000000000800a1e8                Ap_EduMenu_ShowMenu
 .text.Ap_EduMenu_ExeCmd
                0x000000000800a28c      0x348 Ap_EduMenu.o
                0x000000000800a28c                Ap_EduMenu_ExeCmd
 .text.print_byte_out
                0x000000000800a5d4       0x38 Lb_Printf.o
                0x000000000800a5d4                print_byte_out
 .text.PrintString.part.0
                0x000000000800a60c       0x1c Lb_Printf.o
 .text.DecToLong
                0x000000000800a628       0x48 Lb_Printf.o
                0x000000000800a628                DecToLong
 .text.PrintDec
                0x000000000800a670      0x17c Lb_Printf.o
 .text.PrintHex
                0x000000000800a7ec      0x1dc Lb_Printf.o
 .text.Lb_printf
                0x000000000800a9c8       0xf4 Lb_Printf.o
                0x000000000800a9c8                Lb_printf
 .text.Lb_sprintf
                0x000000000800aabc      0x104 Lb_Printf.o
                0x000000000800aabc                Lb_sprintf
 .text.Lb_vsprintf
                0x000000000800abc0       0xec Lb_Printf.o
                0x000000000800abc0                Lb_vsprintf
 .text.Hw_StartUp_Init
                0x000000000800acac       0xb0 Hw_StartUp.o
                0x000000000800acac                Hw_StartUp_Init
 .text.Hw_Init  0x000000000800ad5c       0xd0 Hw.o
                0x000000000800ad5c                Hw_Init
 .text.Hw_Wait_Usec
                0x000000000800ae2c       0x24 Hw.o
                0x000000000800ae2c                Hw_Wait_Usec
 .text.Hw_ISR_UART2_Handler
                0x000000000800ae50       0x34 Hw_Uart.o
                0x000000000800ae50                Hw_ISR_UART2_Handler
 .text.Hw_ISR_UART1_Handler
                0x000000000800ae84       0x34 Hw_Uart.o
                0x000000000800ae84                Hw_ISR_UART1_Handler
 .text.Hw_Uart_Putch.part.0
                0x000000000800aeb8       0x1c Hw_Uart.o
 .text.Hw_Uart_Open_COM1
                0x000000000800aed4       0x90 Hw_Uart.o
                0x000000000800aed4                Hw_Uart_Open_COM1
 .text.Hw_Uart_Open_COM2
                0x000000000800af64       0xb8 Hw_Uart.o
                0x000000000800af64                Hw_Uart_Open_COM2
 .text.Hw_Uart_Init
                0x000000000800b01c       0x4c Hw_Uart.o
                0x000000000800b01c                Hw_Uart_Init
 .text.Hw_Uart_SetReceiveFuncISR
                0x000000000800b068       0x14 Hw_Uart.o
                0x000000000800b068                Hw_Uart_SetReceiveFuncISR
 .text.Hw_Uart_Putch
                0x000000000800b07c       0x30 Hw_Uart.o
                0x000000000800b07c                Hw_Uart_Putch
 .text.Hw_Uart_PrintEx
                0x000000000800b0ac       0x20 Hw_Uart.o
                0x000000000800b0ac                Hw_Uart_PrintEx
 .text.Hw_Uart_Printf
                0x000000000800b0cc       0x30 Hw_Uart.o
                0x000000000800b0cc                Hw_Uart_Printf
 .text.Hw_Uart_GetchNoWait
                0x000000000800b0fc       0x20 Hw_Uart.o
                0x000000000800b0fc                Hw_Uart_GetchNoWait
 .text.print_byte
                0x000000000800b11c       0x1c Hw_Uart.o
                0x000000000800b11c                print_byte
 .text.Hw_PLL_Init
                0x000000000800b138       0x94 Hw_PLL.o
                0x000000000800b138                Hw_PLL_Init
 .text.Hw_ISR_Init
                0x000000000800b1cc       0x14 Hw_ISR.o
                0x000000000800b1cc                Hw_ISR_Init
 .text.Hw_ISR_SetIRQFunc
                0x000000000800b1e0       0x10 Hw_ISR.o
                0x000000000800b1e0                Hw_ISR_SetIRQFunc
 .text.Hw_ISR_SetIRQFuncByAddr
                0x000000000800b1f0       0x10 Hw_ISR.o
                0x000000000800b1f0                Hw_ISR_SetIRQFuncByAddr
 .text.Hw_Timer_SetupISR
                0x000000000800b200       0x1c Hw_Timer.o
                0x000000000800b200                Hw_Timer_SetupISR
 .text.Hw_Timer_Init
                0x000000000800b21c       0x7c Hw_Timer.o
                0x000000000800b21c                Hw_Timer_Init
 .text.Hw_Timer_Tick
                0x000000000800b298       0x6c Hw_Timer.o
                0x000000000800b298                Hw_Timer_Tick
 .text.Hw_Timer_ISR
                0x000000000800b304       0x10 Hw_Timer.o
                0x000000000800b304                Hw_Timer_ISR
 .text.Hw_Timer_Set
                0x000000000800b314       0x20 Hw_Timer.o
                0x000000000800b314                Hw_Timer_Set
 .text.Hw_Timer_Start
                0x000000000800b334       0x14 Hw_Timer.o
                0x000000000800b334                Hw_Timer_Start
 .text.Hw_Timer_Delay_ms
                0x000000000800b348       0x14 Hw_Timer.o
                0x000000000800b348                Hw_Timer_Delay_ms
 .text.Hw_Timer_Get_CountValue
                0x000000000800b35c        0xc Hw_Timer.o
                0x000000000800b35c                Hw_Timer_Get_CountValue
 .text.Hw_Uart_Q_Init
                0x000000000800b368       0x1c Hw_Uart_Q.o
                0x000000000800b368                Hw_Uart_Q_Init
 .text.HW_UART_Q_VAILD
                0x000000000800b384       0x2c Hw_Uart_Q.o
                0x000000000800b384                HW_UART_Q_VAILD
 .text.Hw_Uart_Q_Push
                0x000000000800b3b0       0x5c Hw_Uart_Q.o
                0x000000000800b3b0                Hw_Uart_Q_Push
 .text.Hw_Uart_Q_Pop
                0x000000000800b40c       0x58 Hw_Uart_Q.o
                0x000000000800b40c                Hw_Uart_Q_Pop
 .text.Hw_Adc_Init
                0x000000000800b464       0xa0 Hw_Adc.o
                0x000000000800b464                Hw_Adc_Init
 .text.Hw_Adc_GetData
                0x000000000800b504       0x84 Hw_Adc.o
                0x000000000800b504                Hw_Adc_GetData
 .text.Hw_Led_Off
                0x000000000800b588       0x3c Hw_Led.o
                0x000000000800b588                Hw_Led_Off
 .text.Hw_Led_Init
                0x000000000800b5c4       0x28 Hw_Led.o
                0x000000000800b5c4                Hw_Led_Init
 .text.Hw_Led_Toggle
                0x000000000800b5ec       0x3c Hw_Led.o
                0x000000000800b5ec                Hw_Led_Toggle
 .text.Hw_VCom_Init
                0x000000000800b628       0x2c Hw_VCom.o
                0x000000000800b628                Hw_VCom_Init
 .text.Hw_VBus_SetDataPortOutput
                0x000000000800b654       0xac Hw_VBus.o
                0x000000000800b654                Hw_VBus_SetDataPortOutput
 .text.Hw_VBus_SetDataPortInput
                0x000000000800b700       0xac Hw_VBus.o
                0x000000000800b700                Hw_VBus_SetDataPortInput
 .text.Hw_VBus_SetAddress
                0x000000000800b7ac       0x7c Hw_VBus.o
                0x000000000800b7ac                Hw_VBus_SetAddress
 .text.Hw_VBus_SetIdle
                0x000000000800b828       0x44 Hw_VBus.o
                0x000000000800b828                Hw_VBus_SetIdle
 .text.Hw_VBus_Init
                0x000000000800b86c       0xe8 Hw_VBus.o
                0x000000000800b86c                Hw_VBus_Init
 .text.Hw_VBus_WriteData
                0x000000000800b954       0x58 Hw_VBus.o
                0x000000000800b954                Hw_VBus_WriteData
 .text.Hw_VBus_ReadData
                0x000000000800b9ac       0x74 Hw_VBus.o
                0x000000000800b9ac                Hw_VBus_ReadData
 .text.Hw_VBus_SetBit
                0x000000000800ba20       0x2c Hw_VBus.o
                0x000000000800ba20                Hw_VBus_SetBit
 .text.Hw_VBus_ClrBit
                0x000000000800ba4c       0x2c Hw_VBus.o
                0x000000000800ba4c                Hw_VBus_ClrBit
 .text.Hw_VBus_TglBit
                0x000000000800ba78       0x2c Hw_VBus.o
                0x000000000800ba78                Hw_VBus_TglBit
 .text.Hw_KeyPad_StateTick
                0x000000000800baa4      0x164 Hw_KeyPad.o
                0x000000000800baa4                Hw_KeyPad_StateTick
 .text.Hw_KeyPad_Init
                0x000000000800bc08       0x64 Hw_KeyPad.o
                0x000000000800bc08                Hw_KeyPad_Init
 .text.Hw_KeyPad_Scan
                0x000000000800bc6c       0x10 Hw_KeyPad.o
                0x000000000800bc6c                Hw_KeyPad_Scan
 .text.Hw_KeyPad_Tick
                0x000000000800bc7c       0x60 Hw_KeyPad.o
                0x000000000800bc7c                Hw_KeyPad_Tick
 .text.Hw_KeyPad_SetEventFunc
                0x000000000800bcdc       0x18 Hw_KeyPad.o
                0x000000000800bcdc                Hw_KeyPad_SetEventFunc
 .text.Hw_KeyPad_GetRepeatCnt
                0x000000000800bcf4       0x1c Hw_KeyPad.o
                0x000000000800bcf4                Hw_KeyPad_GetRepeatCnt
 .text.Hw_KeyPad_GetPressedCnt
                0x000000000800bd10        0xc Hw_KeyPad.o
                0x000000000800bd10                Hw_KeyPad_GetPressedCnt
 .text.Hw_KeyPad_WaitForEvent
                0x000000000800bd1c       0x38 Hw_KeyPad.o
                0x000000000800bd1c                Hw_KeyPad_WaitForEvent
 .text.Hw_KeyPad_GetEventKeyData
                0x000000000800bd54       0x14 Hw_KeyPad.o
                0x000000000800bd54                Hw_KeyPad_GetEventKeyData
 .text.Hw_KeyPad_GetEventKeyNum
                0x000000000800bd68       0x10 Hw_KeyPad.o
                0x000000000800bd68                Hw_KeyPad_GetEventKeyNum
 .text.Hw_7Seg_Tick
                0x000000000800bd78       0x3c Hw_7Seg.o
                0x000000000800bd78                Hw_7Seg_Tick
 .text.Hw_7Seg_Init
                0x000000000800bdb4       0x54 Hw_7Seg.o
                0x000000000800bdb4                Hw_7Seg_Init
 .text.Hw_7Seg_SetNumber
                0x000000000800be08       0x8c Hw_7Seg.o
                0x000000000800be08                Hw_7Seg_SetNumber
 .text.Hw_7Seg_Printf
                0x000000000800be94       0x70 Hw_7Seg.o
                0x000000000800be94                Hw_7Seg_Printf
 .text.Hw_CLcd_WriteCmd
                0x000000000800bf04       0x44 Hw_CLcd.o
                0x000000000800bf04                Hw_CLcd_WriteCmd
 .text.Hw_CLcd_WriteByte
                0x000000000800bf48       0x44 Hw_CLcd.o
                0x000000000800bf48                Hw_CLcd_WriteByte
 .text.Hw_CLcd_Goto
                0x000000000800bf8c       0x1c Hw_CLcd.o
                0x000000000800bf8c                Hw_CLcd_Goto
 .text.Hw_CLcd_Clear
                0x000000000800bfa8       0x20 Hw_CLcd.o
                0x000000000800bfa8                Hw_CLcd_Clear
 .text.Hw_CLcd_WriteStr
                0x000000000800bfc8       0x28 Hw_CLcd.o
                0x000000000800bfc8                Hw_CLcd_WriteStr
 .text.Hw_CLcd_Printf
                0x000000000800bff0       0x44 Hw_CLcd.o
                0x000000000800bff0                Hw_CLcd_Printf
 .text.Hw_CLcd_Init
                0x000000000800c034       0x78 Hw_CLcd.o
                0x000000000800c034                Hw_CLcd_Init
 .text.Hw_Cds_Init
                0x000000000800c0ac        0x4 Hw_Cds.o
                0x000000000800c0ac                Hw_Cds_Init
 .text.Hw_Cds_GetData
                0x000000000800c0b0       0x2c Hw_Cds.o
                0x000000000800c0b0                Hw_Cds_GetData
 .text.Hw_DHT11_Tick
                0x000000000800c0dc      0x170 Hw_DHT11.o
                0x000000000800c0dc                Hw_DHT11_Tick
 .text.Hw_DHT11_IO_ISR
                0x000000000800c24c       0x54 Hw_DHT11.o
                0x000000000800c24c                Hw_DHT11_IO_ISR
 .text.Hw_DHT11_GetHumidity
                0x000000000800c2a0       0x10 Hw_DHT11.o
                0x000000000800c2a0                Hw_DHT11_GetHumidity
 .text.Hw_DHT11_GetTemperature
                0x000000000800c2b0       0x10 Hw_DHT11.o
                0x000000000800c2b0                Hw_DHT11_GetTemperature
 .text.Hw_DHT11_IO_SetupISR
                0x000000000800c2c0       0x4c Hw_DHT11.o
                0x000000000800c2c0                Hw_DHT11_IO_SetupISR
 .text.Hw_DHT11_Init
                0x000000000800c30c       0xa4 Hw_DHT11.o
                0x000000000800c30c                Hw_DHT11_Init
 .text.EP1_IN_Callback
                0x000000000800c3b0       0x74 usb_endp.o
                0x000000000800c3b0                EP1_IN_Callback
 .text.EP3_OUT_Callback
                0x000000000800c424       0x34 usb_endp.o
                0x000000000800c424                EP3_OUT_Callback
 .text.SOF_Callback
                0x000000000800c458       0x30 usb_endp.o
                0x000000000800c458                SOF_Callback
 .text.USB_Istr
                0x000000000800c488      0x1e8 usb_istr.o
                0x000000000800c488                USB_Istr
 .text.Virtual_Com_Port_SetConfiguration
                0x000000000800c670       0x18 usb_prop.o
                0x000000000800c670                Virtual_Com_Port_SetConfiguration
 .text.Virtual_Com_Port_SetDeviceAddress
                0x000000000800c688       0x10 usb_prop.o
                0x000000000800c688                Virtual_Com_Port_SetDeviceAddress
 .text.Virtual_Com_Port_Status_In
                0x000000000800c698       0x14 usb_prop.o
                0x000000000800c698                Virtual_Com_Port_Status_In
 .text.Virtual_Com_Port_Status_Out
                0x000000000800c6ac        0x4 usb_prop.o
                0x000000000800c6ac                Virtual_Com_Port_Status_Out
 .text.Virtual_Com_Port_Data_Setup
                0x000000000800c6b0       0x60 usb_prop.o
                0x000000000800c6b0                Virtual_Com_Port_Data_Setup
 .text.Virtual_Com_Port_NoData_Setup
                0x000000000800c710       0x24 usb_prop.o
                0x000000000800c710                Virtual_Com_Port_NoData_Setup
 .text.Virtual_Com_Port_Get_Interface_Setting
                0x000000000800c734       0x10 usb_prop.o
                0x000000000800c734                Virtual_Com_Port_Get_Interface_Setting
 .text.Virtual_Com_Port_GetLineCoding
                0x000000000800c744       0x18 usb_prop.o
                0x000000000800c744                Virtual_Com_Port_GetLineCoding
 .text.Virtual_Com_Port_SetLineCoding
                0x000000000800c75c       0x18 usb_prop.o
                0x000000000800c75c                Virtual_Com_Port_SetLineCoding
 .text.Virtual_Com_Port_GetStringDescriptor
                0x000000000800c774       0x28 usb_prop.o
                0x000000000800c774                Virtual_Com_Port_GetStringDescriptor
 .text.Virtual_Com_Port_GetConfigDescriptor
                0x000000000800c79c       0x18 usb_prop.o
                0x000000000800c79c                Virtual_Com_Port_GetConfigDescriptor
 .text.Virtual_Com_Port_GetDeviceDescriptor
                0x000000000800c7b4       0x18 usb_prop.o
                0x000000000800c7b4                Virtual_Com_Port_GetDeviceDescriptor
 .text.Virtual_Com_Port_Reset
                0x000000000800c7cc      0x110 usb_prop.o
                0x000000000800c7cc                Virtual_Com_Port_Reset
 .text.Virtual_Com_Port_init
                0x000000000800c8dc       0x3c usb_prop.o
                0x000000000800c8dc                Virtual_Com_Port_init
 .text.PowerOn  0x000000000800c918       0x3c usb_pwr.o
                0x000000000800c918                PowerOn
 .text.Suspend  0x000000000800c954      0x108 usb_pwr.o
                0x000000000800c954                Suspend
 .text.Resume_Init
                0x000000000800ca5c       0x28 usb_pwr.o
                0x000000000800ca5c                Resume_Init
 .text.Resume   0x000000000800ca84       0xbc usb_pwr.o
                0x000000000800ca84                Resume
 .text.USBWakeUp_IRQHandler
                0x000000000800cb40       0x10 hw_config.o
                0x000000000800cb40                USBWakeUp_IRQHandler
 .text.IntToUnicode
                0x000000000800cb50       0x3c hw_config.o
 .text.USB_LP_IRQHandler
                0x000000000800cb8c       0x10 hw_config.o
                0x000000000800cb8c                USB_LP_IRQHandler
 .text.Set_System
                0x000000000800cb9c       0x20 hw_config.o
                0x000000000800cb9c                Set_System
 .text.Set_USBClock
                0x000000000800cbbc       0x24 hw_config.o
                0x000000000800cbbc                Set_USBClock
 .text.Leave_LowPowerMode
                0x000000000800cbe0       0x20 hw_config.o
                0x000000000800cbe0                Leave_LowPowerMode
 .text.USB_Interrupts_Config
                0x000000000800cc00       0xb0 hw_config.o
                0x000000000800cc00                USB_Interrupts_Config
 .text.USB_Cable_Config
                0x000000000800ccb0       0x1c hw_config.o
                0x000000000800ccb0                USB_Cable_Config
 .text.USB_To_USART_Send_Data
                0x000000000800cccc       0x2c hw_config.o
                0x000000000800cccc                USB_To_USART_Send_Data
 .text.Handle_USBAsynchXfer
                0x000000000800ccf8       0xa4 hw_config.o
                0x000000000800ccf8                Handle_USBAsynchXfer
 .text.Get_SerialNum
                0x000000000800cd9c       0x44 hw_config.o
                0x000000000800cd9c                Get_SerialNum
 .text.__WFI    0x000000000800cde0        0x4 hw_config.o
                0x000000000800cde0                __WFI
 .text.Standard_GetConfiguration
                0x000000000800cde4       0x28 usb_core.o
                0x000000000800cde4                Standard_GetConfiguration
 .text.Standard_GetInterface
                0x000000000800ce0c       0x28 usb_core.o
                0x000000000800ce0c                Standard_GetInterface
 .text.Standard_GetStatus
                0x000000000800ce34       0x98 usb_core.o
                0x000000000800ce34                Standard_GetStatus
 .text.DataStageIn
                0x000000000800cecc       0xd0 usb_core.o
 .text.Standard_SetConfiguration
                0x000000000800cf9c       0x3c usb_core.o
                0x000000000800cf9c                Standard_SetConfiguration
 .text.Standard_SetInterface
                0x000000000800cfd8       0x50 usb_core.o
                0x000000000800cfd8                Standard_SetInterface
 .text.Standard_ClearFeature
                0x000000000800d028       0xf8 usb_core.o
                0x000000000800d028                Standard_ClearFeature
 .text.Standard_SetEndPointFeature
                0x000000000800d120       0x98 usb_core.o
                0x000000000800d120                Standard_SetEndPointFeature
 .text.Standard_GetDescriptorData
                0x000000000800d1b8       0x1c usb_core.o
                0x000000000800d1b8                Standard_GetDescriptorData
 .text.Post0_Process
                0x000000000800d1d4       0x48 usb_core.o
                0x000000000800d1d4                Post0_Process
 .text.Out0_Process
                0x000000000800d21c       0xfc usb_core.o
                0x000000000800d21c                Out0_Process
 .text.Setup0_Process
                0x000000000800d318      0x394 usb_core.o
                0x000000000800d318                Setup0_Process
 .text.SetDeviceAddress
                0x000000000800d6ac       0x44 usb_core.o
                0x000000000800d6ac                SetDeviceAddress
 .text.In0_Process
                0x000000000800d6f0       0x6c usb_core.o
                0x000000000800d6f0                In0_Process
 .text.NOP_Process
                0x000000000800d75c        0x4 usb_core.o
                0x000000000800d75c                NOP_Process
 .text.USB_Init
                0x000000000800d760       0x44 usb_init.o
                0x000000000800d760                USB_Init
 .text.UserToPMABufferCopy
                0x000000000800d7a4       0x34 usb_mem.o
                0x000000000800d7a4                UserToPMABufferCopy
 .text.PMAToUserBufferCopy
                0x000000000800d7d8       0x24 usb_mem.o
                0x000000000800d7d8                PMAToUserBufferCopy
 .text.SetBTABLE
                0x000000000800d7fc       0x14 usb_regs.o
                0x000000000800d7fc                SetBTABLE
 .text.SetEPType
                0x000000000800d810       0x18 usb_regs.o
                0x000000000800d810                SetEPType
 .text.SetEPTxStatus
                0x000000000800d828       0x40 usb_regs.o
                0x000000000800d828                SetEPTxStatus
 .text.SetEPRxStatus
                0x000000000800d868       0x40 usb_regs.o
                0x000000000800d868                SetEPRxStatus
 .text.SetEPTxValid
                0x000000000800d8a8       0x24 usb_regs.o
                0x000000000800d8a8                SetEPTxValid
 .text.SetEPRxValid
                0x000000000800d8cc       0x24 usb_regs.o
                0x000000000800d8cc                SetEPRxValid
 .text.Clear_Status_Out
                0x000000000800d8f0       0x20 usb_regs.o
                0x000000000800d8f0                Clear_Status_Out
 .text.ClearDTOG_RX
                0x000000000800d910       0x24 usb_regs.o
                0x000000000800d910                ClearDTOG_RX
 .text.ClearDTOG_TX
                0x000000000800d934       0x24 usb_regs.o
                0x000000000800d934                ClearDTOG_TX
 .text.SetEPTxAddr
                0x000000000800d958       0x24 usb_regs.o
                0x000000000800d958                SetEPTxAddr
 .text.SetEPRxAddr
                0x000000000800d97c       0x28 usb_regs.o
                0x000000000800d97c                SetEPRxAddr
 .text.GetEPTxAddr
                0x000000000800d9a4       0x20 usb_regs.o
                0x000000000800d9a4                GetEPTxAddr
 .text.GetEPRxAddr
                0x000000000800d9c4       0x20 usb_regs.o
                0x000000000800d9c4                GetEPRxAddr
 .text.SetEPTxCount
                0x000000000800d9e4       0x20 usb_regs.o
                0x000000000800d9e4                SetEPTxCount
 .text.SetEPRxCount
                0x000000000800da04       0x44 usb_regs.o
                0x000000000800da04                SetEPRxCount
 .text.GetEPRxCount
                0x000000000800da48       0x24 usb_regs.o
                0x000000000800da48                GetEPRxCount
 .text.ByteSwap
                0x000000000800da6c        0xc usb_regs.o
                0x000000000800da6c                ByteSwap
 .text.USB_SIL_Init
                0x000000000800da78       0x2c usb_sil.o
                0x000000000800da78                USB_SIL_Init
 .text.USB_SIL_Read
                0x000000000800daa4       0x38 usb_sil.o
                0x000000000800daa4                USB_SIL_Read
 .text.CTR_LP   0x000000000800dadc      0x1bc usb_int.o
                0x000000000800dadc                CTR_LP
 .text.CTR_LP.__stub
                0x000000000800dc98        0x8 linker stubs
 *(.stub .gnu.linkonce.t.*)
 *(.rodata .rodata.* .gnu.linkonce.r.*)
 .rodata.str1.4
                0x000000000800dca0      0x147 Ap_StrCmd.o
                                        0x148 (size before relaxing)
 *fill*         0x000000000800dde7        0x1 
 .rodata.str1.4
                0x000000000800dde8      0x40b Ap_EduMenu.o
                                        0x414 (size before relaxing)
 *fill*         0x000000000800e1f3        0x1 
 .rodata.str1.4
                0x000000000800e1f4       0x16 Hw_CLcd.o
                                         0x18 (size before relaxing)
 *fill*         0x000000000800e20a        0x2 
 .rodata.Virtual_Com_Port_StringVendor
                0x000000000800e20c       0x28 usb_desc.o
                0x000000000800e20c                Virtual_Com_Port_StringVendor
 .rodata.Virtual_Com_Port_DeviceDescriptor
                0x000000000800e234       0x14 usb_desc.o
                0x000000000800e234                Virtual_Com_Port_DeviceDescriptor
 .rodata.Virtual_Com_Port_StringLangID
                0x000000000800e248        0x4 usb_desc.o
                0x000000000800e248                Virtual_Com_Port_StringLangID
 .rodata.Virtual_Com_Port_StringProduct
                0x000000000800e24c       0x34 usb_desc.o
                0x000000000800e24c                Virtual_Com_Port_StringProduct
 .rodata.Virtual_Com_Port_ConfigDescriptor
                0x000000000800e280       0x44 usb_desc.o
                0x000000000800e280                Virtual_Com_Port_ConfigDescriptor
 .rodata        0x000000000800e2c4      0x104 /opt/local/lib/gcc/arm-none-eabi/4.7.2/../../../../arm-none-eabi/lib/thumb/libc.a(lib_a-ctype_.o)
                0x000000000800e2c4                _ctype_
 .rodata        0x000000000800e3c8      0x47c /opt/local/lib/gcc/arm-none-eabi/4.7.2/../../../../arm-none-eabi/lib/thumb/libc.a(lib_a-svfscanf.o)
 .rodata.str1.4
                0x000000000800e844        0x5 /opt/local/lib/gcc/arm-none-eabi/4.7.2/../../../../arm-none-eabi/lib/thumb/libc.a(lib_a-svfscanf.o)
                                          0x8 (size before relaxing)
 *fill*         0x000000000800e849        0x3 
 .rodata        0x000000000800e84c        0x4 /opt/local/lib/gcc/arm-none-eabi/4.7.2/../../../../arm-none-eabi/lib/thumb/libc.a(lib_a-impure.o)
                0x000000000800e84c                _global_impure_ptr
 .rodata.str1.4
                0x000000000800e850        0x2 /opt/local/lib/gcc/arm-none-eabi/4.7.2/../../../../arm-none-eabi/lib/thumb/libc.a(lib_a-impure.o)
                                          0x4 (size before relaxing)
 *fill*         0x000000000800e852        0x2 
 .rodata.str1.4
                0x000000000800e854        0xa /opt/local/lib/gcc/arm-none-eabi/4.7.2/../../../../arm-none-eabi/lib/thumb/libc.a(lib_a-locale.o)
                                         0x14 (size before relaxing)
 .rodata.str1.4
                0x0000000000000000        0x4 /opt/local/lib/gcc/arm-none-eabi/4.7.2/../../../../arm-none-eabi/lib/thumb/libc.a(lib_a-mbrtowc.o)
 *fill*         0x000000000800e85e        0x2 
 .rodata        0x000000000800e860       0xf8 /opt/local/lib/gcc/arm-none-eabi/4.7.2/../../../../arm-none-eabi/lib/thumb/libc.a(lib_a-strtod.o)
 .rodata.str1.4
                0x000000000800e958        0xf /opt/local/lib/gcc/arm-none-eabi/4.7.2/../../../../arm-none-eabi/lib/thumb/libc.a(lib_a-strtod.o)
                                         0x10 (size before relaxing)
 *fill*         0x000000000800e967        0x1 
 .rodata        0x000000000800e968      0x340 /opt/local/lib/gcc/arm-none-eabi/4.7.2/../../../../arm-none-eabi/lib/thumb/libc.a(lib_a-svfiscanf.o)
 .rodata        0x000000000800eca8      0x184 /opt/local/lib/gcc/arm-none-eabi/4.7.2/../../../../arm-none-eabi/lib/thumb/libc.a(lib_a-svfprintf.o)
 .rodata.str1.4
                0x000000000800ee2c       0x42 /opt/local/lib/gcc/arm-none-eabi/4.7.2/../../../../arm-none-eabi/lib/thumb/libc.a(lib_a-svfprintf.o)
                                         0x44 (size before relaxing)
 *fill*         0x000000000800ee6e        0x2 
 .rodata.str1.4
                0x000000000800ee70        0x4 /opt/local/lib/gcc/arm-none-eabi/4.7.2/../../../../arm-none-eabi/lib/thumb/libc.a(lib_a-syscalls.o)
 .rodata.str1.4
                0x000000000800ee74       0x10 /opt/local/lib/gcc/arm-none-eabi/4.7.2/../../../../arm-none-eabi/lib/thumb/libc.a(lib_a-dtoa.o)
                                         0x14 (size before relaxing)
 .rodata.str1.4
                0x000000000800ee84       0x1c /opt/local/lib/gcc/arm-none-eabi/4.7.2/../../../../arm-none-eabi/lib/thumb/libc.a(lib_a-gdtoa-gethex.o)
 .rodata        0x000000000800eea0      0x128 /opt/local/lib/gcc/arm-none-eabi/4.7.2/../../../../arm-none-eabi/lib/thumb/libc.a(lib_a-mprec.o)
                0x000000000800eeb0                __mprec_tens
                0x000000000800ef78                __mprec_tinytens
                0x000000000800efa0                __mprec_bigtens
 .rodata        0x000000000800efc8      0x184 /opt/local/lib/gcc/arm-none-eabi/4.7.2/../../../../arm-none-eabi/lib/thumb/libc.a(lib_a-svfiprintf.o)
 .rodata.str1.4
                0x0000000000000000       0x30 /opt/local/lib/gcc/arm-none-eabi/4.7.2/../../../../arm-none-eabi/lib/thumb/libc.a(lib_a-svfiprintf.o)
 *(.glue_7 .glue_7t)
 .glue_7        0x0000000000000000        0x0 linker stubs
 .glue_7t       0x0000000000000000        0x0 linker stubs
                0x000000000800f14c                . = ALIGN (0x4)
                0x000000000800f14c                _etext = .
                0x000000000800f14c                _sidata = _etext

.vfp11_veneer   0x000000000800f14c        0x0
 .vfp11_veneer  0x0000000000000000        0x0 linker stubs

.v4_bx          0x000000000800f14c        0x0
 .v4_bx         0x0000000000000000        0x0 linker stubs

.iplt           0x000000000800f14c        0x0
 .iplt          0x0000000000000000        0x0 main.o

.rel.dyn        0x000000000800f14c        0x0
 .rel.iplt      0x0000000000000000        0x0 main.o

.data           0x0000000020000000      0x9e8 load address 0x000000000800f14c
                0x0000000020000000                . = .
                0x0000000020000000                . = ALIGN (0x4)
                0x0000000020000000                _sdata = .
                0x0000000020000000                . = ALIGN (0x80)
                0x0000000000000000                _isr_vectorsram_offs = (. - 0x20000000)
 *(.isr_vectorsram)
                0x0000000020000000                . = ALIGN (0x4)
 *(.ramfunc*)
                0x0000000020000000                . = ALIGN (0x4)
 *(.data .data.* .gnu.linkonce.d.*)
 .data.ExeFirst.4518
                0x0000000020000000        0x1 Ap_EduMenu.o
 *fill*         0x0000000020000001        0x3 
 .data.Hw_7Seg_DotTbl
                0x0000000020000004       0x10 Hw_7Seg.o
                0x0000000020000004                Hw_7Seg_DotTbl
 .data.Virtual_Com_Port_StringSerial
                0x0000000020000014       0x1c usb_desc.o
                0x0000000020000014                Virtual_Com_Port_StringSerial
 .data.pEpInt_IN
                0x0000000020000030       0x1c usb_istr.o
                0x0000000020000030                pEpInt_IN
 .data.pEpInt_OUT
                0x000000002000004c       0x1c usb_istr.o
                0x000000002000004c                pEpInt_OUT
 .data.Config_Descriptor
                0x0000000020000068        0x8 usb_prop.o
                0x0000000020000068                Config_Descriptor
 .data.Device_Property
                0x0000000020000070       0x30 usb_prop.o
                0x0000000020000070                Device_Property
 .data.User_Standard_Requests
                0x00000000200000a0       0x24 usb_prop.o
                0x00000000200000a0                User_Standard_Requests
 .data.Device_Descriptor
                0x00000000200000c4        0x8 usb_prop.o
                0x00000000200000c4                Device_Descriptor
 .data.String_Descriptor
                0x00000000200000cc       0x20 usb_prop.o
                0x00000000200000cc                String_Descriptor
 .data.linecoding
                0x00000000200000ec        0x8 usb_prop.o
                0x00000000200000ec                linecoding
 .data.Device_Table
                0x00000000200000f4        0x4 usb_prop.o
                0x00000000200000f4                Device_Table
 .data          0x00000000200000f8        0x4 /opt/local/lib/gcc/arm-none-eabi/4.7.2/../../../../arm-none-eabi/lib/thumb/libc.a(lib_a-ctype_.o)
                0x00000000200000f8                __ctype_ptr__
 *fill*         0x00000000200000fc        0x4 
 .data          0x0000000020000100      0x430 /opt/local/lib/gcc/arm-none-eabi/4.7.2/../../../../arm-none-eabi/lib/thumb/libc.a(lib_a-impure.o)
                0x0000000020000100                _impure_ptr
 .data          0x0000000020000530       0x7c /opt/local/lib/gcc/arm-none-eabi/4.7.2/../../../../arm-none-eabi/lib/thumb/libc.a(lib_a-locale.o)
                0x0000000020000550                __mb_cur_max
 .data          0x00000000200005ac        0x4 /opt/local/lib/gcc/arm-none-eabi/4.7.2/../../../../arm-none-eabi/lib/thumb/libc.a(lib_a-mbtowc_r.o)
                0x00000000200005ac                __mbtowc
 .data          0x00000000200005b0       0x28 /opt/local/lib/gcc/arm-none-eabi/4.7.2/../../../../arm-none-eabi/lib/thumb/libc.a(lib_a-strtod.o)
 .data          0x00000000200005d8      0x410 /opt/local/lib/gcc/arm-none-eabi/4.7.2/../../../../arm-none-eabi/lib/thumb/libc.a(lib_a-mallocr.o)
                0x00000000200005d8                __malloc_av_
                0x00000000200009e0                __malloc_sbrk_base
                0x00000000200009e4                __malloc_trim_threshold
                0x00000000200009e8                . = ALIGN (0x4)
                0x00000000200009e8                _edata = .

.igot.plt       0x00000000200009e8        0x0 load address 0x000000000800fb34
 .igot.plt      0x0000000000000000        0x0 main.o

.bss            0x0000000020000a00     0x179c load address 0x000000000800fc00
                0x0000000020000a00                . = ALIGN (0x4)
                0x0000000020000a00                _sbss = .
 *(.bss .bss.*)
 .bss.Ap_StrCmd_EchoEnable
                0x0000000020000a00        0x1 Ap_StrCmd.o
                0x0000000020000a00                Ap_StrCmd_EchoEnable
 *fill*         0x0000000020000a01        0x1 
 .bss.Seg_Count
                0x0000000020000a02        0x2 Ap_EduMenu.o
                0x0000000020000a02                Seg_Count
 .bss.StrPrintBufIndex
                0x0000000020000a04        0x4 Lb_Printf.o
                0x0000000020000a04                StrPrintBufIndex
 .bss.StrPrintMode
                0x0000000020000a08        0x1 Lb_Printf.o
                0x0000000020000a08                StrPrintMode
 *fill*         0x0000000020000a09        0x3 
 .bss.Timer_Tbl
                0x0000000020000a0c       0xa0 Hw_Timer.o
 .bss.Hw_Timer_Counter
                0x0000000020000aac        0x4 Hw_Timer.o
 .bss.Excute.4398
                0x0000000020000ab0        0x1 Hw_Timer.o
 *fill*         0x0000000020000ab1        0x1 
 .bss.Tmr_Ctn   0x0000000020000ab2        0x2 Hw_Timer.o
 .bss.Hw_KeyPad_EventFlag
                0x0000000020000ab4        0x4 Hw_KeyPad.o
                0x0000000020000ab4                Hw_KeyPad_EventFlag
 .bss.Hw_KeyPad_PressedCount
                0x0000000020000ab8        0x4 Hw_KeyPad.o
                0x0000000020000ab8                Hw_KeyPad_PressedCount
 .bss.Column_Cnt.4388
                0x0000000020000abc        0x1 Hw_7Seg.o
 *fill*         0x0000000020000abd        0x1 
 .bss.TimerCntSaved.4432
                0x0000000020000abe        0x2 Hw_DHT11.o
 .bss.Hw_DHT11_BitIndex
                0x0000000020000ac0        0x4 Hw_DHT11.o
                0x0000000020000ac0                Hw_DHT11_BitIndex
 .bss.State.4413
                0x0000000020000ac4        0x4 Hw_DHT11.o
 .bss.Cnt.4414  0x0000000020000ac8        0x4 Hw_DHT11.o
 .bss.FrameCount.4846
                0x0000000020000acc        0x4 usb_endp.o
 .bss.wCNTR     0x0000000020000ad0        0x4 usb_istr.o
                0x0000000020000ad0                wCNTR
 .bss.bIntPackSOF
                0x0000000020000ad4        0x1 usb_istr.o
                0x0000000020000ad4                bIntPackSOF
 *fill*         0x0000000020000ad5        0x3 
 .bss.esof_counter
                0x0000000020000ad8        0x4 usb_istr.o
                0x0000000020000ad8                esof_counter
 .bss.Request   0x0000000020000adc        0x1 usb_prop.o
                0x0000000020000adc                Request
 *fill*         0x0000000020000add        0x3 
 .bss.bDeviceState
                0x0000000020000ae0        0x4 usb_pwr.o
                0x0000000020000ae0                bDeviceState
 .bss.fSuspendEnabled
                0x0000000020000ae4        0x1 usb_pwr.o
                0x0000000020000ae4                fSuspendEnabled
 *fill*         0x0000000020000ae5        0x3 
 .bss.remotewakeupon
                0x0000000020000ae8        0x4 usb_pwr.o
                0x0000000020000ae8                remotewakeupon
 .bss.USB_Tx_State
                0x0000000020000aec        0x1 hw_config.o
                0x0000000020000aec                USB_Tx_State
 *fill*         0x0000000020000aed        0x3 
 .bss.USART_Rx_ptr_in
                0x0000000020000af0        0x4 hw_config.o
                0x0000000020000af0                USART_Rx_ptr_in
 .bss.USART_Rx_ptr_out
                0x0000000020000af4        0x4 hw_config.o
                0x0000000020000af4                USART_Rx_ptr_out
 .bss.USART_Rx_length
                0x0000000020000af8        0x4 hw_config.o
                0x0000000020000af8                USART_Rx_length
 .bss.Data_Mul_MaxPacketSize
                0x0000000020000afc        0x1 usb_core.o
                0x0000000020000afc                Data_Mul_MaxPacketSize
 *fill*         0x0000000020000afd        0x3 
 .bss           0x0000000020000b00       0xb0 /opt/local/lib/gcc/arm-none-eabi/4.7.2/../../../../arm-none-eabi/lib/thumb/libc.a(lib_a-syscalls.o)
 .bss           0x0000000020000bb0       0x34 /opt/local/lib/gcc/arm-none-eabi/4.7.2/../../../../arm-none-eabi/lib/thumb/libc.a(lib_a-mallocr.o)
                0x0000000020000bb0                __malloc_top_pad
                0x0000000020000bb4                __malloc_current_mallinfo
                0x0000000020000bdc                __malloc_max_sbrked_mem
                0x0000000020000be0                __malloc_max_total_mem
 *(COMMON)
 COMMON         0x0000000020000be4      0x3fd Ap_StrCmd.o
                0x0000000020000be4                Ap_StrCmd_Dic_Ptr
                0x0000000020000f54                Ap_StrCmd_CmdStrExe
                0x0000000020000f90                Ap_StrCmd_ChSize
                0x0000000020000f92                Ap_StrCmd_CmdCheck
                0x0000000020000f94                Ap_StrCmd_CmdStr
                0x0000000020000fd0                Ap_StrCmd_DlyCheck
                0x0000000020000fd4                Ap_StrCmd_PrintPtr
                0x0000000020000fd8                Ap_StrCmd_Size
                0x0000000020000fdc                Ap_StrCmd_PutchPtr
                0x0000000020000fe0                Ap_StrCmd_LoopCheck
 *fill*         0x0000000020000fe1        0x3 
 COMMON         0x0000000020000fe4      0x172 Ap_StrCmd_Q.o
                0x0000000020000fe4                Ap_StrCmd_Q_Start
                0x0000000020000fe8                Ap_StrCmd_Q_Buffer
                0x0000000020001150                Ap_StrCmd_Q_End
                0x0000000020001154                Ap_StrCmd_Q_Size
 *fill*         0x0000000020001156        0x2 
 COMMON         0x0000000020001158        0x4 Lb_Printf.o
                0x0000000020001158                pStrPrintBuf
 COMMON         0x000000002000115c       0x3c Hw_Uart.o
                0x000000002000115c                Hw_Uart_Ch
 *fill*         0x0000000020001198       0x68 
 COMMON         0x0000000020001200      0x190 Hw_ISR.o
                0x0000000020001200                Hw_ISR_VectorTable
 COMMON         0x0000000020001390      0x116 Hw_Uart_Q.o
                0x0000000020001390                Hw_Uart_Q_Buffer
                0x0000000020001478                Hw_Uart_Q_Size
                0x0000000020001488                Hw_Uart_Q_End
                0x0000000020001498                Hw_Uart_Q_Start
 *fill*         0x00000000200014a6        0x2 
 COMMON         0x00000000200014a8      0x200 Hw_VBus.o
                0x00000000200014a8                Hw_VBus_AddrTbl
 COMMON         0x00000000200016a8       0xe0 Hw_KeyPad.o
                0x00000000200016a8                Hw_KeyPad_Data
                0x00000000200016ac                Hw_KeyPad_EventList
                0x00000000200016b8                Hw_KeyPad_Log
                0x0000000020001778                Hw_KeyPad_PressedList
 COMMON         0x0000000020001788        0x4 Hw_7Seg.o
                0x0000000020001788                Hw_7Seg_Data
 COMMON         0x000000002000178c       0x65 Hw_DHT11.o
                0x000000002000178c                Hw_DHT11_BitTbl
                0x00000000200017e8                Hw_DHT11_Log
 *fill*         0x00000000200017f1        0x3 
 COMMON         0x00000000200017f4       0x40 usb_endp.o
                0x00000000200017f4                USB_Rx_Buffer
 COMMON         0x0000000020001834        0x2 usb_istr.o
                0x0000000020001834                wIstr
 *fill*         0x0000000020001836        0x2 
 COMMON         0x0000000020001838       0x24 usb_pwr.o
                0x0000000020001838                ResumeS
                0x000000002000183c                EP
 COMMON         0x000000002000185c      0x800 hw_config.o
                0x000000002000185c                USART_Rx_Buffer
 COMMON         0x000000002000205c        0x2 usb_core.o
                0x000000002000205c                StatusInfo
 *fill*         0x000000002000205e        0x2 
 COMMON         0x0000000020002060       0x32 usb_init.o
                0x0000000020002060                SaveState
                0x0000000020002064                pProperty
                0x0000000020002068                EPindex
                0x000000002000206c                Device_Info
                0x0000000020002088                pUser_Standard_Requests
                0x000000002000208c                pInformation
                0x0000000020002090                wInterrupt_Mask
 COMMON         0x0000000020002092        0x4 usb_int.o
                0x0000000020002092                SaveRState
                0x0000000020002094                SaveTState
 *fill*         0x0000000020002096        0x2 
 COMMON         0x0000000020002098        0x4 /opt/local/lib/gcc/arm-none-eabi/4.7.2/../../../../arm-none-eabi/lib/thumb/libc.a(lib_a-reent.o)
                0x0000000020002098                errno
 COMMON         0x000000002000209c      0x100 /opt/local/lib/gcc/arm-none-eabi/4.7.2/../../../../arm-none-eabi/lib/thumb/libc.a(lib_a-gdtoa-gethex.o)
                0x000000002000209c                __hexdig
                0x000000002000219c                . = ALIGN (0x4)
                0x000000002000219c                _ebss = .
                0x000000002000219c                PROVIDE (end, _ebss)
                0x000000002000219c                PROVIDE (_end, _ebss)

._usrstack      0x000000002000219c      0x100 load address 0x000000000801139c
                0x000000002000219c                . = ALIGN (0x4)
                0x000000002000219c                _susrstack = .
                0x000000002000229c                . = (. + _Minimum_Stack_Size)
 *fill*         0x000000002000219c      0x100 
                0x000000002000229c                . = ALIGN (0x4)
                0x000000002000229c                _eusrstack = .
                0x0000000000000400                __Stack_Size = 0x400
                0x0000000000000400                PROVIDE (_Stack_Size, __Stack_Size)
                0x0000000020004c00                __Stack_Init = (_estack - __Stack_Size)
                0x0000000020004c00                PROVIDE (_Stack_Init, __Stack_Init)
OUTPUT(main.elf elf32-littlearm)

.debug_info     0x0000000000000000    0x2923f
 .debug_info    0x0000000000000000      0x10f main.o
 .debug_info    0x000000000000010f       0x8c Ap.o
 .debug_info    0x000000000000019b      0xd96 Ap_StrCmd.o
 .debug_info    0x0000000000000f31      0x2d4 Ap_StrCmd_Q.o
 .debug_info    0x0000000000001205      0x769 Ap_EduMenu.o
 .debug_info    0x000000000000196e      0x93a Lb_Printf.o
 .debug_info    0x00000000000022a8      0x14a Hw_StartUp.o
 .debug_info    0x00000000000023f2      0x172 Hw.o
 .debug_info    0x0000000000002564      0x638 Hw_Uart.o
 .debug_info    0x0000000000002b9c       0x85 Hw_PLL.o
 .debug_info    0x0000000000002c21      0x160 Hw_ISR.o
 .debug_info    0x0000000000002d81      0x42b Hw_Timer.o
 .debug_info    0x00000000000031ac      0x280 Hw_Uart_Q.o
 .debug_info    0x000000000000342c      0x177 Hw_Adc.o
 .debug_info    0x00000000000035a3      0x2df Hw_Led.o
 .debug_info    0x0000000000003882      0x151 Hw_VCom.o
 .debug_info    0x00000000000039d3      0x57b Hw_VBus.o
 .debug_info    0x0000000000003f4e      0x5a9 Hw_KeyPad.o
 .debug_info    0x00000000000044f7      0x31c Hw_7Seg.o
 .debug_info    0x0000000000004813      0x630 Hw_CLcd.o
 .debug_info    0x0000000000004e43       0xd4 Hw_Cds.o
 .debug_info    0x0000000000004f17      0x50c Hw_DHT11.o
 .debug_info    0x0000000000005423      0x154 usb_desc.o
 .debug_info    0x0000000000005577      0x22f usb_endp.o
 .debug_info    0x00000000000057a6      0x372 usb_istr.o
 .debug_info    0x0000000000005b18      0xacf usb_prop.o
 .debug_info    0x00000000000065e7      0x34a usb_pwr.o
 .debug_info    0x0000000000006931      0x61b hw_config.o
 .debug_info    0x0000000000006f4c      0xde6 usb_core.o
 .debug_info    0x0000000000007d32      0x474 usb_init.o
 .debug_info    0x00000000000081a6      0x1a2 usb_mem.o
 .debug_info    0x0000000000008348      0xdaa usb_regs.o
 .debug_info    0x00000000000090f2      0x1c0 usb_sil.o
 .debug_info    0x00000000000092b2      0x18d usb_int.o
 .debug_info    0x000000000000943f       0x6d /opt/local/lib/gcc/arm-none-eabi/4.7.2/../../../../arm-none-eabi/lib/thumb/libc.a(lib_a-ctype_.o)
 .debug_info    0x00000000000094ac      0xb19 /opt/local/lib/gcc/arm-none-eabi/4.7.2/../../../../arm-none-eabi/lib/thumb/libc.a(lib_a-sscanf.o)
 .debug_info    0x0000000000009fc5      0xc7c /opt/local/lib/gcc/arm-none-eabi/4.7.2/../../../../arm-none-eabi/lib/thumb/libc.a(lib_a-stdio.o)
 .debug_info    0x000000000000ac41       0xcd /opt/local/lib/gcc/arm-none-eabi/4.7.2/../../../../arm-none-eabi/lib/thumb/libc.a(lib_a-strlen.o)
 .debug_info    0x000000000000ad0e       0xf6 /opt/local/lib/gcc/arm-none-eabi/4.7.2/../../../../arm-none-eabi/lib/thumb/libc.a(lib_a-strncmp.o)
 .debug_info    0x000000000000ae04     0x1357 /opt/local/lib/gcc/arm-none-eabi/4.7.2/../../../../arm-none-eabi/lib/thumb/libc.a(lib_a-svfscanf.o)
 .debug_info    0x000000000000c15b      0x9ff /opt/local/lib/gcc/arm-none-eabi/4.7.2/../../../../arm-none-eabi/lib/thumb/libc.a(lib_a-writer.o)
 .debug_info    0x000000000000cb5a      0x9b6 /opt/local/lib/gcc/arm-none-eabi/4.7.2/../../../../arm-none-eabi/lib/thumb/libc.a(lib_a-closer.o)
 .debug_info    0x000000000000d510      0x961 /opt/local/lib/gcc/arm-none-eabi/4.7.2/../../../../arm-none-eabi/lib/thumb/libc.a(lib_a-impure.o)
 .debug_info    0x000000000000de71       0xc6 /opt/local/lib/gcc/arm-none-eabi/4.7.2/../../../../arm-none-eabi/lib/thumb/libc.a(lib_a-iswspace.o)
 .debug_info    0x000000000000df37      0xd0c /opt/local/lib/gcc/arm-none-eabi/4.7.2/../../../../arm-none-eabi/lib/thumb/libc.a(lib_a-locale.o)
 .debug_info    0x000000000000ec43      0x9ed /opt/local/lib/gcc/arm-none-eabi/4.7.2/../../../../arm-none-eabi/lib/thumb/libc.a(lib_a-lseekr.o)
 .debug_info    0x000000000000f630      0xb5f /opt/local/lib/gcc/arm-none-eabi/4.7.2/../../../../arm-none-eabi/lib/thumb/libc.a(lib_a-mbrtowc.o)
 .debug_info    0x000000000001018f      0xacb /opt/local/lib/gcc/arm-none-eabi/4.7.2/../../../../arm-none-eabi/lib/thumb/libc.a(lib_a-mbtowc_r.o)
 .debug_info    0x0000000000010c5a      0x119 /opt/local/lib/gcc/arm-none-eabi/4.7.2/../../../../arm-none-eabi/lib/thumb/libc.a(lib_a-memset.o)
 .debug_info    0x0000000000010d73      0x9f8 /opt/local/lib/gcc/arm-none-eabi/4.7.2/../../../../arm-none-eabi/lib/thumb/libc.a(lib_a-readr.o)
 .debug_info    0x000000000001176b      0xb27 /opt/local/lib/gcc/arm-none-eabi/4.7.2/../../../../arm-none-eabi/lib/thumb/libc.a(lib_a-reent.o)
 .debug_info    0x0000000000012292      0x147 /opt/local/lib/gcc/arm-none-eabi/4.7.2/../../../../arm-none-eabi/lib/thumb/libc.a(lib_a-s_fpclassify.o)
 .debug_info    0x00000000000123d9      0x100 /opt/local/lib/gcc/arm-none-eabi/4.7.2/../../../../arm-none-eabi/lib/thumb/libc.a(lib_a-sccl.o)
 .debug_info    0x00000000000124d9       0xce /opt/local/lib/gcc/arm-none-eabi/4.7.2/../../../../arm-none-eabi/lib/thumb/libc.a(lib_a-sf_nan.o)
 .debug_info    0x00000000000125a7      0xacf /opt/local/lib/gcc/arm-none-eabi/4.7.2/../../../../arm-none-eabi/lib/thumb/libc.a(lib_a-sprintf.o)
 .debug_info    0x0000000000013076       0xb5 /opt/local/lib/gcc/arm-none-eabi/4.7.2/../../../../arm-none-eabi/lib/thumb/libc.a(lib_a-strcmp.o)
 .debug_info    0x000000000001312b     0x188f /opt/local/lib/gcc/arm-none-eabi/4.7.2/../../../../arm-none-eabi/lib/thumb/libc.a(lib_a-strtod.o)
 .debug_info    0x00000000000149ba      0xa80 /opt/local/lib/gcc/arm-none-eabi/4.7.2/../../../../arm-none-eabi/lib/thumb/libc.a(lib_a-strtol.o)
 .debug_info    0x000000000001543a      0xa80 /opt/local/lib/gcc/arm-none-eabi/4.7.2/../../../../arm-none-eabi/lib/thumb/libc.a(lib_a-strtoul.o)
 .debug_info    0x0000000000015eba     0x122c /opt/local/lib/gcc/arm-none-eabi/4.7.2/../../../../arm-none-eabi/lib/thumb/libc.a(lib_a-svfiscanf.o)
 .debug_info    0x00000000000170e6     0x1769 /opt/local/lib/gcc/arm-none-eabi/4.7.2/../../../../arm-none-eabi/lib/thumb/libc.a(lib_a-svfprintf.o)
 .debug_info    0x000000000001884f     0x1dca /opt/local/lib/gcc/arm-none-eabi/4.7.2/../../../../arm-none-eabi/lib/thumb/libc.a(lib_a-syscalls.o)
 .debug_info    0x000000000001a619      0xb72 /opt/local/lib/gcc/arm-none-eabi/4.7.2/../../../../arm-none-eabi/lib/thumb/libc.a(lib_a-ungetc.o)
 .debug_info    0x000000000001b18b     0x143f /opt/local/lib/gcc/arm-none-eabi/4.7.2/../../../../arm-none-eabi/lib/thumb/libc.a(lib_a-dtoa.o)
 .debug_info    0x000000000001c5ca      0x95a /opt/local/lib/gcc/arm-none-eabi/4.7.2/../../../../arm-none-eabi/lib/thumb/libc.a(lib_a-errno.o)
 .debug_info    0x000000000001cf24      0xb86 /opt/local/lib/gcc/arm-none-eabi/4.7.2/../../../../arm-none-eabi/lib/thumb/libc.a(lib_a-fflush.o)
 .debug_info    0x000000000001daaa      0xdbf /opt/local/lib/gcc/arm-none-eabi/4.7.2/../../../../arm-none-eabi/lib/thumb/libc.a(lib_a-findfp.o)
 .debug_info    0x000000000001e869      0xd0e /opt/local/lib/gcc/arm-none-eabi/4.7.2/../../../../arm-none-eabi/lib/thumb/libc.a(lib_a-freer.o)
 .debug_info    0x000000000001f577      0xa79 /opt/local/lib/gcc/arm-none-eabi/4.7.2/../../../../arm-none-eabi/lib/thumb/libc.a(lib_a-fwalk.o)
 .debug_info    0x000000000001fff0     0x1356 /opt/local/lib/gcc/arm-none-eabi/4.7.2/../../../../arm-none-eabi/lib/thumb/libc.a(lib_a-gdtoa-gethex.o)
 .debug_info    0x0000000000021346      0x328 /opt/local/lib/gcc/arm-none-eabi/4.7.2/../../../../arm-none-eabi/lib/thumb/libc.a(lib_a-gdtoa-hexnan.o)
 .debug_info    0x000000000002166e      0xe72 /opt/local/lib/gcc/arm-none-eabi/4.7.2/../../../../arm-none-eabi/lib/thumb/libc.a(lib_a-mallocr.o)
 .debug_info    0x00000000000224e0      0x12c /opt/local/lib/gcc/arm-none-eabi/4.7.2/../../../../arm-none-eabi/lib/thumb/libc.a(lib_a-memchr-stub.o)
 .debug_info    0x000000000002260c      0x132 /opt/local/lib/gcc/arm-none-eabi/4.7.2/../../../../arm-none-eabi/lib/thumb/libc.a(lib_a-memcpy-stub.o)
 .debug_info    0x000000000002273e      0x985 /opt/local/lib/gcc/arm-none-eabi/4.7.2/../../../../arm-none-eabi/lib/thumb/libc.a(lib_a-mlock.o)
 .debug_info    0x00000000000230c3     0x177e /opt/local/lib/gcc/arm-none-eabi/4.7.2/../../../../arm-none-eabi/lib/thumb/libc.a(lib_a-mprec.o)
 .debug_info    0x0000000000024841      0xdae /opt/local/lib/gcc/arm-none-eabi/4.7.2/../../../../arm-none-eabi/lib/thumb/libc.a(lib_a-reallocr.o)
 .debug_info    0x00000000000255ef      0x9cc /opt/local/lib/gcc/arm-none-eabi/4.7.2/../../../../arm-none-eabi/lib/thumb/libc.a(lib_a-sbrkr.o)
 .debug_info    0x0000000000025fbb     0x111d /opt/local/lib/gcc/arm-none-eabi/4.7.2/../../../../arm-none-eabi/lib/thumb/libc.a(lib_a-svfiprintf.o)
 .debug_info    0x00000000000270d8      0xac6 /opt/local/lib/gcc/arm-none-eabi/4.7.2/../../../../arm-none-eabi/lib/thumb/libc.a(lib_a-callocr.o)
 .debug_info    0x0000000000027b9e      0xab0 /opt/local/lib/gcc/arm-none-eabi/4.7.2/../../../../arm-none-eabi/lib/thumb/libc.a(lib_a-fclose.o)
 .debug_info    0x000000000002864e      0x132 /opt/local/lib/gcc/arm-none-eabi/4.7.2/../../../../arm-none-eabi/lib/thumb/libc.a(lib_a-memmove.o)
 .debug_info    0x0000000000028780      0x131 /opt/local/lib/gcc/arm-none-eabi/4.7.2/thumb/libgcc.a(_udivsi3.o)
 .debug_info    0x00000000000288b1      0x131 /opt/local/lib/gcc/arm-none-eabi/4.7.2/thumb/libgcc.a(_divsi3.o)
 .debug_info    0x00000000000289e2      0x131 /opt/local/lib/gcc/arm-none-eabi/4.7.2/thumb/libgcc.a(_dvmd_tls.o)
 .debug_info    0x0000000000028b13      0x132 /opt/local/lib/gcc/arm-none-eabi/4.7.2/thumb/libgcc.a(_arm_addsubdf3.o)
 .debug_info    0x0000000000028c45      0x132 /opt/local/lib/gcc/arm-none-eabi/4.7.2/thumb/libgcc.a(_arm_muldivdf3.o)
 .debug_info    0x0000000000028d77      0x132 /opt/local/lib/gcc/arm-none-eabi/4.7.2/thumb/libgcc.a(_arm_cmpdf2.o)
 .debug_info    0x0000000000028ea9      0x132 /opt/local/lib/gcc/arm-none-eabi/4.7.2/thumb/libgcc.a(_arm_fixdfsi.o)
 .debug_info    0x0000000000028fdb      0x132 /opt/local/lib/gcc/arm-none-eabi/4.7.2/thumb/libgcc.a(_arm_fixunsdfsi.o)
 .debug_info    0x000000000002910d      0x132 /opt/local/lib/gcc/arm-none-eabi/4.7.2/thumb/libgcc.a(_arm_truncdfsf2.o)

.debug_abbrev   0x0000000000000000     0x8fd1
 .debug_abbrev  0x0000000000000000       0xaa main.o
 .debug_abbrev  0x00000000000000aa       0x4d Ap.o
 .debug_abbrev  0x00000000000000f7      0x411 Ap_StrCmd.o
 .debug_abbrev  0x0000000000000508      0x168 Ap_StrCmd_Q.o
 .debug_abbrev  0x0000000000000670      0x19d Ap_EduMenu.o
 .debug_abbrev  0x000000000000080d      0x347 Lb_Printf.o
 .debug_abbrev  0x0000000000000b54       0xd0 Hw_StartUp.o
 .debug_abbrev  0x0000000000000c24       0xf1 Hw.o
 .debug_abbrev  0x0000000000000d15      0x2b9 Hw_Uart.o
 .debug_abbrev  0x0000000000000fce       0x44 Hw_PLL.o
 .debug_abbrev  0x0000000000001012       0xd1 Hw_ISR.o
 .debug_abbrev  0x00000000000010e3      0x22f Hw_Timer.o
 .debug_abbrev  0x0000000000001312      0x14e Hw_Uart_Q.o
 .debug_abbrev  0x0000000000001460      0x127 Hw_Adc.o
 .debug_abbrev  0x0000000000001587      0x14d Hw_Led.o
 .debug_abbrev  0x00000000000016d4       0xe6 Hw_VCom.o
 .debug_abbrev  0x00000000000017ba      0x234 Hw_VBus.o
 .debug_abbrev  0x00000000000019ee      0x22f Hw_KeyPad.o
 .debug_abbrev  0x0000000000001c1d      0x1c7 Hw_7Seg.o
 .debug_abbrev  0x0000000000001de4      0x218 Hw_CLcd.o
 .debug_abbrev  0x0000000000001ffc       0x8f Hw_Cds.o
 .debug_abbrev  0x000000000000208b      0x201 Hw_DHT11.o
 .debug_abbrev  0x000000000000228c       0x5d usb_desc.o
 .debug_abbrev  0x00000000000022e9       0xf2 usb_endp.o
 .debug_abbrev  0x00000000000023db      0x138 usb_istr.o
 .debug_abbrev  0x0000000000002513      0x221 usb_prop.o
 .debug_abbrev  0x0000000000002734      0x18b usb_pwr.o
 .debug_abbrev  0x00000000000028bf      0x2ae hw_config.o
 .debug_abbrev  0x0000000000002b6d      0x38e usb_core.o
 .debug_abbrev  0x0000000000002efb      0x10a usb_init.o
 .debug_abbrev  0x0000000000003005       0xa3 usb_mem.o
 .debug_abbrev  0x00000000000030a8      0x227 usb_regs.o
 .debug_abbrev  0x00000000000032cf       0xc7 usb_sil.o
 .debug_abbrev  0x0000000000003396       0xd0 usb_int.o
 .debug_abbrev  0x0000000000003466       0x4c /opt/local/lib/gcc/arm-none-eabi/4.7.2/../../../../arm-none-eabi/lib/thumb/libc.a(lib_a-ctype_.o)
 .debug_abbrev  0x00000000000034b2      0x207 /opt/local/lib/gcc/arm-none-eabi/4.7.2/../../../../arm-none-eabi/lib/thumb/libc.a(lib_a-sscanf.o)
 .debug_abbrev  0x00000000000036b9      0x229 /opt/local/lib/gcc/arm-none-eabi/4.7.2/../../../../arm-none-eabi/lib/thumb/libc.a(lib_a-stdio.o)
 .debug_abbrev  0x00000000000038e2       0x8a /opt/local/lib/gcc/arm-none-eabi/4.7.2/../../../../arm-none-eabi/lib/thumb/libc.a(lib_a-strlen.o)
 .debug_abbrev  0x000000000000396c       0x7f /opt/local/lib/gcc/arm-none-eabi/4.7.2/../../../../arm-none-eabi/lib/thumb/libc.a(lib_a-strncmp.o)
 .debug_abbrev  0x00000000000039eb      0x2b5 /opt/local/lib/gcc/arm-none-eabi/4.7.2/../../../../arm-none-eabi/lib/thumb/libc.a(lib_a-svfscanf.o)
 .debug_abbrev  0x0000000000003ca0      0x1d4 /opt/local/lib/gcc/arm-none-eabi/4.7.2/../../../../arm-none-eabi/lib/thumb/libc.a(lib_a-writer.o)
 .debug_abbrev  0x0000000000003e74      0x1cf /opt/local/lib/gcc/arm-none-eabi/4.7.2/../../../../arm-none-eabi/lib/thumb/libc.a(lib_a-closer.o)
 .debug_abbrev  0x0000000000004043      0x160 /opt/local/lib/gcc/arm-none-eabi/4.7.2/../../../../arm-none-eabi/lib/thumb/libc.a(lib_a-impure.o)
 .debug_abbrev  0x00000000000041a3       0x81 /opt/local/lib/gcc/arm-none-eabi/4.7.2/../../../../arm-none-eabi/lib/thumb/libc.a(lib_a-iswspace.o)
 .debug_abbrev  0x0000000000004224      0x277 /opt/local/lib/gcc/arm-none-eabi/4.7.2/../../../../arm-none-eabi/lib/thumb/libc.a(lib_a-locale.o)
 .debug_abbrev  0x000000000000449b      0x1de /opt/local/lib/gcc/arm-none-eabi/4.7.2/../../../../arm-none-eabi/lib/thumb/libc.a(lib_a-lseekr.o)
 .debug_abbrev  0x0000000000004679      0x1f5 /opt/local/lib/gcc/arm-none-eabi/4.7.2/../../../../arm-none-eabi/lib/thumb/libc.a(lib_a-mbrtowc.o)
 .debug_abbrev  0x000000000000486e      0x1f4 /opt/local/lib/gcc/arm-none-eabi/4.7.2/../../../../arm-none-eabi/lib/thumb/libc.a(lib_a-mbtowc_r.o)
 .debug_abbrev  0x0000000000004a62       0xac /opt/local/lib/gcc/arm-none-eabi/4.7.2/../../../../arm-none-eabi/lib/thumb/libc.a(lib_a-memset.o)
 .debug_abbrev  0x0000000000004b0e      0x1cf /opt/local/lib/gcc/arm-none-eabi/4.7.2/../../../../arm-none-eabi/lib/thumb/libc.a(lib_a-readr.o)
 .debug_abbrev  0x0000000000004cdd      0x244 /opt/local/lib/gcc/arm-none-eabi/4.7.2/../../../../arm-none-eabi/lib/thumb/libc.a(lib_a-reent.o)
 .debug_abbrev  0x0000000000004f21       0xc6 /opt/local/lib/gcc/arm-none-eabi/4.7.2/../../../../arm-none-eabi/lib/thumb/libc.a(lib_a-s_fpclassify.o)
 .debug_abbrev  0x0000000000004fe7       0x87 /opt/local/lib/gcc/arm-none-eabi/4.7.2/../../../../arm-none-eabi/lib/thumb/libc.a(lib_a-sccl.o)
 .debug_abbrev  0x000000000000506e       0x70 /opt/local/lib/gcc/arm-none-eabi/4.7.2/../../../../arm-none-eabi/lib/thumb/libc.a(lib_a-sf_nan.o)
 .debug_abbrev  0x00000000000050de      0x1fa /opt/local/lib/gcc/arm-none-eabi/4.7.2/../../../../arm-none-eabi/lib/thumb/libc.a(lib_a-sprintf.o)
 .debug_abbrev  0x00000000000052d8       0x70 /opt/local/lib/gcc/arm-none-eabi/4.7.2/../../../../arm-none-eabi/lib/thumb/libc.a(lib_a-strcmp.o)
 .debug_abbrev  0x0000000000005348      0x3ac /opt/local/lib/gcc/arm-none-eabi/4.7.2/../../../../arm-none-eabi/lib/thumb/libc.a(lib_a-strtod.o)
 .debug_abbrev  0x00000000000056f4      0x1f1 /opt/local/lib/gcc/arm-none-eabi/4.7.2/../../../../arm-none-eabi/lib/thumb/libc.a(lib_a-strtol.o)
 .debug_abbrev  0x00000000000058e5      0x1f1 /opt/local/lib/gcc/arm-none-eabi/4.7.2/../../../../arm-none-eabi/lib/thumb/libc.a(lib_a-strtoul.o)
 .debug_abbrev  0x0000000000005ad6      0x349 /opt/local/lib/gcc/arm-none-eabi/4.7.2/../../../../arm-none-eabi/lib/thumb/libc.a(lib_a-svfiscanf.o)
 .debug_abbrev  0x0000000000005e1f      0x351 /opt/local/lib/gcc/arm-none-eabi/4.7.2/../../../../arm-none-eabi/lib/thumb/libc.a(lib_a-svfprintf.o)
 .debug_abbrev  0x0000000000006170      0x4e7 /opt/local/lib/gcc/arm-none-eabi/4.7.2/../../../../arm-none-eabi/lib/thumb/libc.a(lib_a-syscalls.o)
 .debug_abbrev  0x0000000000006657      0x220 /opt/local/lib/gcc/arm-none-eabi/4.7.2/../../../../arm-none-eabi/lib/thumb/libc.a(lib_a-ungetc.o)
 .debug_abbrev  0x0000000000006877      0x2ad /opt/local/lib/gcc/arm-none-eabi/4.7.2/../../../../arm-none-eabi/lib/thumb/libc.a(lib_a-dtoa.o)
 .debug_abbrev  0x0000000000006b24      0x16f /opt/local/lib/gcc/arm-none-eabi/4.7.2/../../../../arm-none-eabi/lib/thumb/libc.a(lib_a-errno.o)
 .debug_abbrev  0x0000000000006c93      0x25d /opt/local/lib/gcc/arm-none-eabi/4.7.2/../../../../arm-none-eabi/lib/thumb/libc.a(lib_a-fflush.o)
 .debug_abbrev  0x0000000000006ef0      0x2ec /opt/local/lib/gcc/arm-none-eabi/4.7.2/../../../../arm-none-eabi/lib/thumb/libc.a(lib_a-findfp.o)
 .debug_abbrev  0x00000000000071dc      0x24d /opt/local/lib/gcc/arm-none-eabi/4.7.2/../../../../arm-none-eabi/lib/thumb/libc.a(lib_a-freer.o)
 .debug_abbrev  0x0000000000007429      0x1a4 /opt/local/lib/gcc/arm-none-eabi/4.7.2/../../../../arm-none-eabi/lib/thumb/libc.a(lib_a-fwalk.o)
 .debug_abbrev  0x00000000000075cd      0x380 /opt/local/lib/gcc/arm-none-eabi/4.7.2/../../../../arm-none-eabi/lib/thumb/libc.a(lib_a-gdtoa-gethex.o)
 .debug_abbrev  0x000000000000794d      0x161 /opt/local/lib/gcc/arm-none-eabi/4.7.2/../../../../arm-none-eabi/lib/thumb/libc.a(lib_a-gdtoa-hexnan.o)
 .debug_abbrev  0x0000000000007aae      0x284 /opt/local/lib/gcc/arm-none-eabi/4.7.2/../../../../arm-none-eabi/lib/thumb/libc.a(lib_a-mallocr.o)
 .debug_abbrev  0x0000000000007d32       0xa9 /opt/local/lib/gcc/arm-none-eabi/4.7.2/../../../../arm-none-eabi/lib/thumb/libc.a(lib_a-memchr-stub.o)
 .debug_abbrev  0x0000000000007ddb       0xa9 /opt/local/lib/gcc/arm-none-eabi/4.7.2/../../../../arm-none-eabi/lib/thumb/libc.a(lib_a-memcpy-stub.o)
 .debug_abbrev  0x0000000000007e84      0x17a /opt/local/lib/gcc/arm-none-eabi/4.7.2/../../../../arm-none-eabi/lib/thumb/libc.a(lib_a-mlock.o)
 .debug_abbrev  0x0000000000007ffe      0x35a /opt/local/lib/gcc/arm-none-eabi/4.7.2/../../../../arm-none-eabi/lib/thumb/libc.a(lib_a-mprec.o)
 .debug_abbrev  0x0000000000008358      0x232 /opt/local/lib/gcc/arm-none-eabi/4.7.2/../../../../arm-none-eabi/lib/thumb/libc.a(lib_a-reallocr.o)
 .debug_abbrev  0x000000000000858a      0x1dd /opt/local/lib/gcc/arm-none-eabi/4.7.2/../../../../arm-none-eabi/lib/thumb/libc.a(lib_a-sbrkr.o)
 .debug_abbrev  0x0000000000008767      0x2c9 /opt/local/lib/gcc/arm-none-eabi/4.7.2/../../../../arm-none-eabi/lib/thumb/libc.a(lib_a-svfiprintf.o)
 .debug_abbrev  0x0000000000008a30      0x204 /opt/local/lib/gcc/arm-none-eabi/4.7.2/../../../../arm-none-eabi/lib/thumb/libc.a(lib_a-callocr.o)
 .debug_abbrev  0x0000000000008c34      0x240 /opt/local/lib/gcc/arm-none-eabi/4.7.2/../../../../arm-none-eabi/lib/thumb/libc.a(lib_a-fclose.o)
 .debug_abbrev  0x0000000000008e74       0xa9 /opt/local/lib/gcc/arm-none-eabi/4.7.2/../../../../arm-none-eabi/lib/thumb/libc.a(lib_a-memmove.o)
 .debug_abbrev  0x0000000000008f1d       0x14 /opt/local/lib/gcc/arm-none-eabi/4.7.2/thumb/libgcc.a(_udivsi3.o)
 .debug_abbrev  0x0000000000008f31       0x14 /opt/local/lib/gcc/arm-none-eabi/4.7.2/thumb/libgcc.a(_divsi3.o)
 .debug_abbrev  0x0000000000008f45       0x14 /opt/local/lib/gcc/arm-none-eabi/4.7.2/thumb/libgcc.a(_dvmd_tls.o)
 .debug_abbrev  0x0000000000008f59       0x14 /opt/local/lib/gcc/arm-none-eabi/4.7.2/thumb/libgcc.a(_arm_addsubdf3.o)
 .debug_abbrev  0x0000000000008f6d       0x14 /opt/local/lib/gcc/arm-none-eabi/4.7.2/thumb/libgcc.a(_arm_muldivdf3.o)
 .debug_abbrev  0x0000000000008f81       0x14 /opt/local/lib/gcc/arm-none-eabi/4.7.2/thumb/libgcc.a(_arm_cmpdf2.o)
 .debug_abbrev  0x0000000000008f95       0x14 /opt/local/lib/gcc/arm-none-eabi/4.7.2/thumb/libgcc.a(_arm_fixdfsi.o)
 .debug_abbrev  0x0000000000008fa9       0x14 /opt/local/lib/gcc/arm-none-eabi/4.7.2/thumb/libgcc.a(_arm_fixunsdfsi.o)
 .debug_abbrev  0x0000000000008fbd       0x14 /opt/local/lib/gcc/arm-none-eabi/4.7.2/thumb/libgcc.a(_arm_truncdfsf2.o)

.debug_loc      0x0000000000000000    0x1cedb
 .debug_loc     0x0000000000000000       0x4c main.o
 .debug_loc     0x000000000000004c       0x20 Ap.o
 .debug_loc     0x000000000000006c      0x859 Ap_StrCmd.o
 .debug_loc     0x00000000000008c5      0x1a3 Ap_StrCmd_Q.o
 .debug_loc     0x0000000000000a68      0x265 Ap_EduMenu.o
 .debug_loc     0x0000000000000ccd      0xd95 Lb_Printf.o
 .debug_loc     0x0000000000001a62       0x76 Hw_StartUp.o
 .debug_loc     0x0000000000001ad8       0xd7 Hw.o
 .debug_loc     0x0000000000001baf      0x56c Hw_Uart.o
 .debug_loc     0x000000000000211b       0x42 Hw_ISR.o
 .debug_loc     0x000000000000215d      0x198 Hw_Timer.o
 .debug_loc     0x00000000000022f5      0x18d Hw_Uart_Q.o
 .debug_loc     0x0000000000002482       0xa3 Hw_Adc.o
 .debug_loc     0x0000000000002525      0x20f Hw_Led.o
 .debug_loc     0x0000000000002734       0x8d Hw_VCom.o
 .debug_loc     0x00000000000027c1      0x44f Hw_VBus.o
 .debug_loc     0x0000000000002c10      0x55d Hw_KeyPad.o
 .debug_loc     0x000000000000316d      0x2c6 Hw_7Seg.o
 .debug_loc     0x0000000000003433      0x325 Hw_CLcd.o
 .debug_loc     0x0000000000003758       0x53 Hw_Cds.o
 .debug_loc     0x00000000000037ab      0x2a1 Hw_DHT11.o
 .debug_loc     0x0000000000003a4c       0xb1 usb_endp.o
 .debug_loc     0x0000000000003afd       0x6e usb_istr.o
 .debug_loc     0x0000000000003b6b      0x2a4 usb_prop.o
 .debug_loc     0x0000000000003e0f      0x252 usb_pwr.o
 .debug_loc     0x0000000000004061      0x21b hw_config.o
 .debug_loc     0x000000000000427c      0xb10 usb_core.o
 .debug_loc     0x0000000000004d8c       0x20 usb_init.o
 .debug_loc     0x0000000000004dac      0x237 usb_mem.o
 .debug_loc     0x0000000000004fe3      0xc9e usb_regs.o
 .debug_loc     0x0000000000005c81      0x135 usb_sil.o
 .debug_loc     0x0000000000005db6      0x15a usb_int.o
 .debug_loc     0x0000000000005f10       0xe0 /opt/local/lib/gcc/arm-none-eabi/4.7.2/../../../../arm-none-eabi/lib/thumb/libc.a(lib_a-sscanf.o)
 .debug_loc     0x0000000000005ff0      0x2c7 /opt/local/lib/gcc/arm-none-eabi/4.7.2/../../../../arm-none-eabi/lib/thumb/libc.a(lib_a-stdio.o)
 .debug_loc     0x00000000000062b7       0x21 /opt/local/lib/gcc/arm-none-eabi/4.7.2/../../../../arm-none-eabi/lib/thumb/libc.a(lib_a-strlen.o)
 .debug_loc     0x00000000000062d8      0x1d9 /opt/local/lib/gcc/arm-none-eabi/4.7.2/../../../../arm-none-eabi/lib/thumb/libc.a(lib_a-strncmp.o)
 .debug_loc     0x00000000000064b1     0x1ca2 /opt/local/lib/gcc/arm-none-eabi/4.7.2/../../../../arm-none-eabi/lib/thumb/libc.a(lib_a-svfscanf.o)
 .debug_loc     0x0000000000008153       0xd0 /opt/local/lib/gcc/arm-none-eabi/4.7.2/../../../../arm-none-eabi/lib/thumb/libc.a(lib_a-writer.o)
 .debug_loc     0x0000000000008223       0x78 /opt/local/lib/gcc/arm-none-eabi/4.7.2/../../../../arm-none-eabi/lib/thumb/libc.a(lib_a-closer.o)
 .debug_loc     0x000000000000829b       0x4c /opt/local/lib/gcc/arm-none-eabi/4.7.2/../../../../arm-none-eabi/lib/thumb/libc.a(lib_a-iswspace.o)
 .debug_loc     0x00000000000082e7      0x127 /opt/local/lib/gcc/arm-none-eabi/4.7.2/../../../../arm-none-eabi/lib/thumb/libc.a(lib_a-locale.o)
 .debug_loc     0x000000000000840e       0xd0 /opt/local/lib/gcc/arm-none-eabi/4.7.2/../../../../arm-none-eabi/lib/thumb/libc.a(lib_a-lseekr.o)
 .debug_loc     0x00000000000084de      0x2df /opt/local/lib/gcc/arm-none-eabi/4.7.2/../../../../arm-none-eabi/lib/thumb/libc.a(lib_a-mbrtowc.o)
 .debug_loc     0x00000000000087bd      0x1b1 /opt/local/lib/gcc/arm-none-eabi/4.7.2/../../../../arm-none-eabi/lib/thumb/libc.a(lib_a-mbtowc_r.o)
 .debug_loc     0x000000000000896e      0x17e /opt/local/lib/gcc/arm-none-eabi/4.7.2/../../../../arm-none-eabi/lib/thumb/libc.a(lib_a-memset.o)
 .debug_loc     0x0000000000008aec       0xd0 /opt/local/lib/gcc/arm-none-eabi/4.7.2/../../../../arm-none-eabi/lib/thumb/libc.a(lib_a-readr.o)
 .debug_loc     0x0000000000008bbc      0x1d8 /opt/local/lib/gcc/arm-none-eabi/4.7.2/../../../../arm-none-eabi/lib/thumb/libc.a(lib_a-reent.o)
 .debug_loc     0x0000000000008d94       0xaf /opt/local/lib/gcc/arm-none-eabi/4.7.2/../../../../arm-none-eabi/lib/thumb/libc.a(lib_a-s_fpclassify.o)
 .debug_loc     0x0000000000008e43      0x1fc /opt/local/lib/gcc/arm-none-eabi/4.7.2/../../../../arm-none-eabi/lib/thumb/libc.a(lib_a-sccl.o)
 .debug_loc     0x000000000000903f       0x21 /opt/local/lib/gcc/arm-none-eabi/4.7.2/../../../../arm-none-eabi/lib/thumb/libc.a(lib_a-sf_nan.o)
 .debug_loc     0x0000000000009060      0x106 /opt/local/lib/gcc/arm-none-eabi/4.7.2/../../../../arm-none-eabi/lib/thumb/libc.a(lib_a-sprintf.o)
 .debug_loc     0x0000000000009166       0x21 /opt/local/lib/gcc/arm-none-eabi/4.7.2/../../../../arm-none-eabi/lib/thumb/libc.a(lib_a-strcmp.o)
 .debug_loc     0x0000000000009187     0x2650 /opt/local/lib/gcc/arm-none-eabi/4.7.2/../../../../arm-none-eabi/lib/thumb/libc.a(lib_a-strtod.o)
 .debug_loc     0x000000000000b7d7      0x3fa /opt/local/lib/gcc/arm-none-eabi/4.7.2/../../../../arm-none-eabi/lib/thumb/libc.a(lib_a-strtol.o)
 .debug_loc     0x000000000000bbd1      0x409 /opt/local/lib/gcc/arm-none-eabi/4.7.2/../../../../arm-none-eabi/lib/thumb/libc.a(lib_a-strtoul.o)
 .debug_loc     0x000000000000bfda     0x16f7 /opt/local/lib/gcc/arm-none-eabi/4.7.2/../../../../arm-none-eabi/lib/thumb/libc.a(lib_a-svfiscanf.o)
 .debug_loc     0x000000000000d6d1     0x3073 /opt/local/lib/gcc/arm-none-eabi/4.7.2/../../../../arm-none-eabi/lib/thumb/libc.a(lib_a-svfprintf.o)
 .debug_loc     0x0000000000010744     0x1299 /opt/local/lib/gcc/arm-none-eabi/4.7.2/../../../../arm-none-eabi/lib/thumb/libc.a(lib_a-syscalls.o)
 .debug_loc     0x00000000000119dd      0x274 /opt/local/lib/gcc/arm-none-eabi/4.7.2/../../../../arm-none-eabi/lib/thumb/libc.a(lib_a-ungetc.o)
 .debug_loc     0x0000000000011c51     0x244e /opt/local/lib/gcc/arm-none-eabi/4.7.2/../../../../arm-none-eabi/lib/thumb/libc.a(lib_a-dtoa.o)
 .debug_loc     0x000000000001409f      0x33c /opt/local/lib/gcc/arm-none-eabi/4.7.2/../../../../arm-none-eabi/lib/thumb/libc.a(lib_a-fflush.o)
 .debug_loc     0x00000000000143db      0x362 /opt/local/lib/gcc/arm-none-eabi/4.7.2/../../../../arm-none-eabi/lib/thumb/libc.a(lib_a-findfp.o)
 .debug_loc     0x000000000001473d      0x685 /opt/local/lib/gcc/arm-none-eabi/4.7.2/../../../../arm-none-eabi/lib/thumb/libc.a(lib_a-freer.o)
 .debug_loc     0x0000000000014dc2      0x1f7 /opt/local/lib/gcc/arm-none-eabi/4.7.2/../../../../arm-none-eabi/lib/thumb/libc.a(lib_a-fwalk.o)
 .debug_loc     0x0000000000014fb9     0x130d /opt/local/lib/gcc/arm-none-eabi/4.7.2/../../../../arm-none-eabi/lib/thumb/libc.a(lib_a-gdtoa-gethex.o)
 .debug_loc     0x00000000000162c6      0x617 /opt/local/lib/gcc/arm-none-eabi/4.7.2/../../../../arm-none-eabi/lib/thumb/libc.a(lib_a-gdtoa-hexnan.o)
 .debug_loc     0x00000000000168dd      0xe06 /opt/local/lib/gcc/arm-none-eabi/4.7.2/../../../../arm-none-eabi/lib/thumb/libc.a(lib_a-mallocr.o)
 .debug_loc     0x00000000000176e3      0x1aa /opt/local/lib/gcc/arm-none-eabi/4.7.2/../../../../arm-none-eabi/lib/thumb/libc.a(lib_a-memchr-stub.o)
 .debug_loc     0x000000000001788d      0x23a /opt/local/lib/gcc/arm-none-eabi/4.7.2/../../../../arm-none-eabi/lib/thumb/libc.a(lib_a-memcpy-stub.o)
 .debug_loc     0x0000000000017ac7     0x1db8 /opt/local/lib/gcc/arm-none-eabi/4.7.2/../../../../arm-none-eabi/lib/thumb/libc.a(lib_a-mprec.o)
 .debug_loc     0x000000000001987f     0x179e /opt/local/lib/gcc/arm-none-eabi/4.7.2/../../../../arm-none-eabi/lib/thumb/libc.a(lib_a-reallocr.o)
 .debug_loc     0x000000000001b01d       0x78 /opt/local/lib/gcc/arm-none-eabi/4.7.2/../../../../arm-none-eabi/lib/thumb/libc.a(lib_a-sbrkr.o)
 .debug_loc     0x000000000001b095     0x185d /opt/local/lib/gcc/arm-none-eabi/4.7.2/../../../../arm-none-eabi/lib/thumb/libc.a(lib_a-svfiprintf.o)
 .debug_loc     0x000000000001c8f2      0x246 /opt/local/lib/gcc/arm-none-eabi/4.7.2/../../../../arm-none-eabi/lib/thumb/libc.a(lib_a-callocr.o)
 .debug_loc     0x000000000001cb38      0x12f /opt/local/lib/gcc/arm-none-eabi/4.7.2/../../../../arm-none-eabi/lib/thumb/libc.a(lib_a-fclose.o)
 .debug_loc     0x000000000001cc67      0x274 /opt/local/lib/gcc/arm-none-eabi/4.7.2/../../../../arm-none-eabi/lib/thumb/libc.a(lib_a-memmove.o)

.debug_aranges  0x0000000000000000     0x12f0
 .debug_aranges
                0x0000000000000000       0x28 main.o
 .debug_aranges
                0x0000000000000028       0x20 Ap.o
 .debug_aranges
                0x0000000000000048       0xb8 Ap_StrCmd.o
 .debug_aranges
                0x0000000000000100       0x48 Ap_StrCmd_Q.o
 .debug_aranges
                0x0000000000000148       0x40 Ap_EduMenu.o
 .debug_aranges
                0x0000000000000188       0x68 Lb_Printf.o
 .debug_aranges
                0x00000000000001f0       0x20 Hw_StartUp.o
 .debug_aranges
                0x0000000000000210       0x30 Hw.o
 .debug_aranges
                0x0000000000000240       0x90 Hw_Uart.o
 .debug_aranges
                0x00000000000002d0       0x20 Hw_PLL.o
 .debug_aranges
                0x00000000000002f0       0x30 Hw_ISR.o
 .debug_aranges
                0x0000000000000320       0x88 Hw_Timer.o
 .debug_aranges
                0x00000000000003a8       0x48 Hw_Uart_Q.o
 .debug_aranges
                0x00000000000003f0       0x40 Hw_Adc.o
 .debug_aranges
                0x0000000000000430       0x40 Hw_Led.o
 .debug_aranges
                0x0000000000000470       0x30 Hw_VCom.o
 .debug_aranges
                0x00000000000004a0       0x78 Hw_VBus.o
 .debug_aranges
                0x0000000000000518       0x78 Hw_KeyPad.o
 .debug_aranges
                0x0000000000000590       0x40 Hw_7Seg.o
 .debug_aranges
                0x00000000000005d0       0x60 Hw_CLcd.o
 .debug_aranges
                0x0000000000000630       0x28 Hw_Cds.o
 .debug_aranges
                0x0000000000000658       0xa0 Hw_DHT11.o
 .debug_aranges
                0x00000000000006f8       0x18 usb_desc.o
 .debug_aranges
                0x0000000000000710       0x30 usb_endp.o
 .debug_aranges
                0x0000000000000740       0x20 usb_istr.o
 .debug_aranges
                0x0000000000000760       0x88 usb_prop.o
 .debug_aranges
                0x00000000000007e8       0x40 usb_pwr.o
 .debug_aranges
                0x0000000000000828       0x90 hw_config.o
 .debug_aranges
                0x00000000000008b8       0x98 usb_core.o
 .debug_aranges
                0x0000000000000950       0x20 usb_init.o
 .debug_aranges
                0x0000000000000970       0x28 usb_mem.o
 .debug_aranges
                0x0000000000000998      0x1f0 usb_regs.o
 .debug_aranges
                0x0000000000000b88       0x30 usb_sil.o
 .debug_aranges
                0x0000000000000bb8       0x28 usb_int.o
 .debug_aranges
                0x0000000000000be0       0x18 /opt/local/lib/gcc/arm-none-eabi/4.7.2/../../../../arm-none-eabi/lib/thumb/libc.a(lib_a-ctype_.o)
 .debug_aranges
                0x0000000000000bf8       0x20 /opt/local/lib/gcc/arm-none-eabi/4.7.2/../../../../arm-none-eabi/lib/thumb/libc.a(lib_a-sscanf.o)
 .debug_aranges
                0x0000000000000c18       0x20 /opt/local/lib/gcc/arm-none-eabi/4.7.2/../../../../arm-none-eabi/lib/thumb/libc.a(lib_a-stdio.o)
 .debug_aranges
                0x0000000000000c38       0x20 /opt/local/lib/gcc/arm-none-eabi/4.7.2/../../../../arm-none-eabi/lib/thumb/libc.a(lib_a-strlen.o)
 .debug_aranges
                0x0000000000000c58       0x20 /opt/local/lib/gcc/arm-none-eabi/4.7.2/../../../../arm-none-eabi/lib/thumb/libc.a(lib_a-strncmp.o)
 .debug_aranges
                0x0000000000000c78       0x20 /opt/local/lib/gcc/arm-none-eabi/4.7.2/../../../../arm-none-eabi/lib/thumb/libc.a(lib_a-svfscanf.o)
 .debug_aranges
                0x0000000000000c98       0x20 /opt/local/lib/gcc/arm-none-eabi/4.7.2/../../../../arm-none-eabi/lib/thumb/libc.a(lib_a-writer.o)
 .debug_aranges
                0x0000000000000cb8       0x20 /opt/local/lib/gcc/arm-none-eabi/4.7.2/../../../../arm-none-eabi/lib/thumb/libc.a(lib_a-closer.o)
 .debug_aranges
                0x0000000000000cd8       0x18 /opt/local/lib/gcc/arm-none-eabi/4.7.2/../../../../arm-none-eabi/lib/thumb/libc.a(lib_a-impure.o)
 .debug_aranges
                0x0000000000000cf0       0x20 /opt/local/lib/gcc/arm-none-eabi/4.7.2/../../../../arm-none-eabi/lib/thumb/libc.a(lib_a-iswspace.o)
 .debug_aranges
                0x0000000000000d10       0x20 /opt/local/lib/gcc/arm-none-eabi/4.7.2/../../../../arm-none-eabi/lib/thumb/libc.a(lib_a-locale.o)
 .debug_aranges
                0x0000000000000d30       0x20 /opt/local/lib/gcc/arm-none-eabi/4.7.2/../../../../arm-none-eabi/lib/thumb/libc.a(lib_a-lseekr.o)
 .debug_aranges
                0x0000000000000d50       0x20 /opt/local/lib/gcc/arm-none-eabi/4.7.2/../../../../arm-none-eabi/lib/thumb/libc.a(lib_a-mbrtowc.o)
 .debug_aranges
                0x0000000000000d70       0x20 /opt/local/lib/gcc/arm-none-eabi/4.7.2/../../../../arm-none-eabi/lib/thumb/libc.a(lib_a-mbtowc_r.o)
 .debug_aranges
                0x0000000000000d90       0x20 /opt/local/lib/gcc/arm-none-eabi/4.7.2/../../../../arm-none-eabi/lib/thumb/libc.a(lib_a-memset.o)
 .debug_aranges
                0x0000000000000db0       0x20 /opt/local/lib/gcc/arm-none-eabi/4.7.2/../../../../arm-none-eabi/lib/thumb/libc.a(lib_a-readr.o)
 .debug_aranges
                0x0000000000000dd0       0x20 /opt/local/lib/gcc/arm-none-eabi/4.7.2/../../../../arm-none-eabi/lib/thumb/libc.a(lib_a-reent.o)
 .debug_aranges
                0x0000000000000df0       0x20 /opt/local/lib/gcc/arm-none-eabi/4.7.2/../../../../arm-none-eabi/lib/thumb/libc.a(lib_a-s_fpclassify.o)
 .debug_aranges
                0x0000000000000e10       0x20 /opt/local/lib/gcc/arm-none-eabi/4.7.2/../../../../arm-none-eabi/lib/thumb/libc.a(lib_a-sccl.o)
 .debug_aranges
                0x0000000000000e30       0x20 /opt/local/lib/gcc/arm-none-eabi/4.7.2/../../../../arm-none-eabi/lib/thumb/libc.a(lib_a-sf_nan.o)
 .debug_aranges
                0x0000000000000e50       0x20 /opt/local/lib/gcc/arm-none-eabi/4.7.2/../../../../arm-none-eabi/lib/thumb/libc.a(lib_a-sprintf.o)
 .debug_aranges
                0x0000000000000e70       0x20 /opt/local/lib/gcc/arm-none-eabi/4.7.2/../../../../arm-none-eabi/lib/thumb/libc.a(lib_a-strcmp.o)
 .debug_aranges
                0x0000000000000e90       0x20 /opt/local/lib/gcc/arm-none-eabi/4.7.2/../../../../arm-none-eabi/lib/thumb/libc.a(lib_a-strtod.o)
 .debug_aranges
                0x0000000000000eb0       0x20 /opt/local/lib/gcc/arm-none-eabi/4.7.2/../../../../arm-none-eabi/lib/thumb/libc.a(lib_a-strtol.o)
 .debug_aranges
                0x0000000000000ed0       0x20 /opt/local/lib/gcc/arm-none-eabi/4.7.2/../../../../arm-none-eabi/lib/thumb/libc.a(lib_a-strtoul.o)
 .debug_aranges
                0x0000000000000ef0       0x20 /opt/local/lib/gcc/arm-none-eabi/4.7.2/../../../../arm-none-eabi/lib/thumb/libc.a(lib_a-svfiscanf.o)
 .debug_aranges
                0x0000000000000f10       0x20 /opt/local/lib/gcc/arm-none-eabi/4.7.2/../../../../arm-none-eabi/lib/thumb/libc.a(lib_a-svfprintf.o)
 .debug_aranges
                0x0000000000000f30       0x20 /opt/local/lib/gcc/arm-none-eabi/4.7.2/../../../../arm-none-eabi/lib/thumb/libc.a(lib_a-syscalls.o)
 .debug_aranges
                0x0000000000000f50       0x20 /opt/local/lib/gcc/arm-none-eabi/4.7.2/../../../../arm-none-eabi/lib/thumb/libc.a(lib_a-ungetc.o)
 .debug_aranges
                0x0000000000000f70       0x20 /opt/local/lib/gcc/arm-none-eabi/4.7.2/../../../../arm-none-eabi/lib/thumb/libc.a(lib_a-dtoa.o)
 .debug_aranges
                0x0000000000000f90       0x20 /opt/local/lib/gcc/arm-none-eabi/4.7.2/../../../../arm-none-eabi/lib/thumb/libc.a(lib_a-errno.o)
 .debug_aranges
                0x0000000000000fb0       0x20 /opt/local/lib/gcc/arm-none-eabi/4.7.2/../../../../arm-none-eabi/lib/thumb/libc.a(lib_a-fflush.o)
 .debug_aranges
                0x0000000000000fd0       0x20 /opt/local/lib/gcc/arm-none-eabi/4.7.2/../../../../arm-none-eabi/lib/thumb/libc.a(lib_a-findfp.o)
 .debug_aranges
                0x0000000000000ff0       0x20 /opt/local/lib/gcc/arm-none-eabi/4.7.2/../../../../arm-none-eabi/lib/thumb/libc.a(lib_a-freer.o)
 .debug_aranges
                0x0000000000001010       0x20 /opt/local/lib/gcc/arm-none-eabi/4.7.2/../../../../arm-none-eabi/lib/thumb/libc.a(lib_a-fwalk.o)
 .debug_aranges
                0x0000000000001030       0x20 /opt/local/lib/gcc/arm-none-eabi/4.7.2/../../../../arm-none-eabi/lib/thumb/libc.a(lib_a-gdtoa-gethex.o)
 .debug_aranges
                0x0000000000001050       0x20 /opt/local/lib/gcc/arm-none-eabi/4.7.2/../../../../arm-none-eabi/lib/thumb/libc.a(lib_a-gdtoa-hexnan.o)
 .debug_aranges
                0x0000000000001070       0x20 /opt/local/lib/gcc/arm-none-eabi/4.7.2/../../../../arm-none-eabi/lib/thumb/libc.a(lib_a-mallocr.o)
 .debug_aranges
                0x0000000000001090       0x20 /opt/local/lib/gcc/arm-none-eabi/4.7.2/../../../../arm-none-eabi/lib/thumb/libc.a(lib_a-memchr-stub.o)
 .debug_aranges
                0x00000000000010b0       0x20 /opt/local/lib/gcc/arm-none-eabi/4.7.2/../../../../arm-none-eabi/lib/thumb/libc.a(lib_a-memcpy-stub.o)
 .debug_aranges
                0x00000000000010d0       0x20 /opt/local/lib/gcc/arm-none-eabi/4.7.2/../../../../arm-none-eabi/lib/thumb/libc.a(lib_a-mlock.o)
 .debug_aranges
                0x00000000000010f0       0x20 /opt/local/lib/gcc/arm-none-eabi/4.7.2/../../../../arm-none-eabi/lib/thumb/libc.a(lib_a-mprec.o)
 .debug_aranges
                0x0000000000001110       0x20 /opt/local/lib/gcc/arm-none-eabi/4.7.2/../../../../arm-none-eabi/lib/thumb/libc.a(lib_a-reallocr.o)
 .debug_aranges
                0x0000000000001130       0x20 /opt/local/lib/gcc/arm-none-eabi/4.7.2/../../../../arm-none-eabi/lib/thumb/libc.a(lib_a-sbrkr.o)
 .debug_aranges
                0x0000000000001150       0x20 /opt/local/lib/gcc/arm-none-eabi/4.7.2/../../../../arm-none-eabi/lib/thumb/libc.a(lib_a-svfiprintf.o)
 .debug_aranges
                0x0000000000001170       0x20 /opt/local/lib/gcc/arm-none-eabi/4.7.2/../../../../arm-none-eabi/lib/thumb/libc.a(lib_a-callocr.o)
 .debug_aranges
                0x0000000000001190       0x20 /opt/local/lib/gcc/arm-none-eabi/4.7.2/../../../../arm-none-eabi/lib/thumb/libc.a(lib_a-fclose.o)
 .debug_aranges
                0x00000000000011b0       0x20 /opt/local/lib/gcc/arm-none-eabi/4.7.2/../../../../arm-none-eabi/lib/thumb/libc.a(lib_a-memmove.o)
 .debug_aranges
                0x00000000000011d0       0x20 /opt/local/lib/gcc/arm-none-eabi/4.7.2/thumb/libgcc.a(_udivsi3.o)
 .debug_aranges
                0x00000000000011f0       0x20 /opt/local/lib/gcc/arm-none-eabi/4.7.2/thumb/libgcc.a(_divsi3.o)
 .debug_aranges
                0x0000000000001210       0x20 /opt/local/lib/gcc/arm-none-eabi/4.7.2/thumb/libgcc.a(_dvmd_tls.o)
 .debug_aranges
                0x0000000000001230       0x20 /opt/local/lib/gcc/arm-none-eabi/4.7.2/thumb/libgcc.a(_arm_addsubdf3.o)
 .debug_aranges
                0x0000000000001250       0x20 /opt/local/lib/gcc/arm-none-eabi/4.7.2/thumb/libgcc.a(_arm_muldivdf3.o)
 .debug_aranges
                0x0000000000001270       0x20 /opt/local/lib/gcc/arm-none-eabi/4.7.2/thumb/libgcc.a(_arm_cmpdf2.o)
 .debug_aranges
                0x0000000000001290       0x20 /opt/local/lib/gcc/arm-none-eabi/4.7.2/thumb/libgcc.a(_arm_fixdfsi.o)
 .debug_aranges
                0x00000000000012b0       0x20 /opt/local/lib/gcc/arm-none-eabi/4.7.2/thumb/libgcc.a(_arm_fixunsdfsi.o)
 .debug_aranges
                0x00000000000012d0       0x20 /opt/local/lib/gcc/arm-none-eabi/4.7.2/thumb/libgcc.a(_arm_truncdfsf2.o)

.debug_ranges   0x0000000000000000     0x1c70
 .debug_ranges  0x0000000000000000       0x30 main.o
 .debug_ranges  0x0000000000000030       0x10 Ap.o
 .debug_ranges  0x0000000000000040      0x2d0 Ap_StrCmd.o
 .debug_ranges  0x0000000000000310       0x78 Ap_StrCmd_Q.o
 .debug_ranges  0x0000000000000388       0x30 Ap_EduMenu.o
 .debug_ranges  0x00000000000003b8      0x188 Lb_Printf.o
 .debug_ranges  0x0000000000000540       0x10 Hw_StartUp.o
 .debug_ranges  0x0000000000000550       0x70 Hw.o
 .debug_ranges  0x00000000000005c0       0x98 Hw_Uart.o
 .debug_ranges  0x0000000000000658       0x10 Hw_PLL.o
 .debug_ranges  0x0000000000000668       0x20 Hw_ISR.o
 .debug_ranges  0x0000000000000688       0x78 Hw_Timer.o
 .debug_ranges  0x0000000000000700       0x50 Hw_Uart_Q.o
 .debug_ranges  0x0000000000000750       0x58 Hw_Adc.o
 .debug_ranges  0x00000000000007a8       0x90 Hw_Led.o
 .debug_ranges  0x0000000000000838       0x20 Hw_VCom.o
 .debug_ranges  0x0000000000000858      0x138 Hw_VBus.o
 .debug_ranges  0x0000000000000990       0x68 Hw_KeyPad.o
 .debug_ranges  0x00000000000009f8       0x30 Hw_7Seg.o
 .debug_ranges  0x0000000000000a28       0x70 Hw_CLcd.o
 .debug_ranges  0x0000000000000a98       0x18 Hw_Cds.o
 .debug_ranges  0x0000000000000ab0      0x258 Hw_DHT11.o
 .debug_ranges  0x0000000000000d08       0x20 usb_endp.o
 .debug_ranges  0x0000000000000d28       0x10 usb_istr.o
 .debug_ranges  0x0000000000000d38       0x78 usb_prop.o
 .debug_ranges  0x0000000000000db0       0x30 usb_pwr.o
 .debug_ranges  0x0000000000000de0       0x98 hw_config.o
 .debug_ranges  0x0000000000000e78      0x248 usb_core.o
 .debug_ranges  0x00000000000010c0       0x10 usb_init.o
 .debug_ranges  0x00000000000010d0       0x18 usb_mem.o
 .debug_ranges  0x00000000000010e8      0x2a0 usb_regs.o
 .debug_ranges  0x0000000000001388       0x20 usb_sil.o
 .debug_ranges  0x00000000000013a8       0x30 usb_int.o
 .debug_ranges  0x00000000000013d8       0xf8 /opt/local/lib/gcc/arm-none-eabi/4.7.2/../../../../arm-none-eabi/lib/thumb/libc.a(lib_a-svfscanf.o)
 .debug_ranges  0x00000000000014d0       0xf8 /opt/local/lib/gcc/arm-none-eabi/4.7.2/../../../../arm-none-eabi/lib/thumb/libc.a(lib_a-strtod.o)
 .debug_ranges  0x00000000000015c8       0xa0 /opt/local/lib/gcc/arm-none-eabi/4.7.2/../../../../arm-none-eabi/lib/thumb/libc.a(lib_a-svfiscanf.o)
 .debug_ranges  0x0000000000001668      0x1a8 /opt/local/lib/gcc/arm-none-eabi/4.7.2/../../../../arm-none-eabi/lib/thumb/libc.a(lib_a-svfprintf.o)
 .debug_ranges  0x0000000000001810      0x198 /opt/local/lib/gcc/arm-none-eabi/4.7.2/../../../../arm-none-eabi/lib/thumb/libc.a(lib_a-syscalls.o)
 .debug_ranges  0x00000000000019a8       0x18 /opt/local/lib/gcc/arm-none-eabi/4.7.2/../../../../arm-none-eabi/lib/thumb/libc.a(lib_a-fflush.o)
 .debug_ranges  0x00000000000019c0       0x40 /opt/local/lib/gcc/arm-none-eabi/4.7.2/../../../../arm-none-eabi/lib/thumb/libc.a(lib_a-gdtoa-gethex.o)
 .debug_ranges  0x0000000000001a00       0x70 /opt/local/lib/gcc/arm-none-eabi/4.7.2/../../../../arm-none-eabi/lib/thumb/libc.a(lib_a-mallocr.o)
 .debug_ranges  0x0000000000001a70       0x48 /opt/local/lib/gcc/arm-none-eabi/4.7.2/../../../../arm-none-eabi/lib/thumb/libc.a(lib_a-mprec.o)
 .debug_ranges  0x0000000000001ab8      0x140 /opt/local/lib/gcc/arm-none-eabi/4.7.2/../../../../arm-none-eabi/lib/thumb/libc.a(lib_a-reallocr.o)
 .debug_ranges  0x0000000000001bf8       0x40 /opt/local/lib/gcc/arm-none-eabi/4.7.2/../../../../arm-none-eabi/lib/thumb/libc.a(lib_a-svfiprintf.o)
 .debug_ranges  0x0000000000001c38       0x38 /opt/local/lib/gcc/arm-none-eabi/4.7.2/../../../../arm-none-eabi/lib/thumb/libc.a(lib_a-callocr.o)

.debug_line     0x0000000000000000     0xdbff
 .debug_line    0x0000000000000000       0x62 main.o
 .debug_line    0x0000000000000062       0x46 Ap.o
 .debug_line    0x00000000000000a8      0x437 Ap_StrCmd.o
 .debug_line    0x00000000000004df      0x121 Ap_StrCmd_Q.o
 .debug_line    0x0000000000000600      0x14d Ap_EduMenu.o
 .debug_line    0x000000000000074d      0x430 Lb_Printf.o
 .debug_line    0x0000000000000b7d       0x83 Hw_StartUp.o
 .debug_line    0x0000000000000c00       0xb1 Hw.o
 .debug_line    0x0000000000000cb1      0x22a Hw_Uart.o
 .debug_line    0x0000000000000edb       0x6a Hw_PLL.o
 .debug_line    0x0000000000000f45       0x7a Hw_ISR.o
 .debug_line    0x0000000000000fbf      0x1be Hw_Timer.o
 .debug_line    0x000000000000117d      0x100 Hw_Uart_Q.o
 .debug_line    0x000000000000127d      0x12e Hw_Adc.o
 .debug_line    0x00000000000013ab       0xdb Hw_Led.o
 .debug_line    0x0000000000001486       0x93 Hw_VCom.o
 .debug_line    0x0000000000001519      0x222 Hw_VBus.o
 .debug_line    0x000000000000173b      0x252 Hw_KeyPad.o
 .debug_line    0x000000000000198d      0x130 Hw_7Seg.o
 .debug_line    0x0000000000001abd      0x166 Hw_CLcd.o
 .debug_line    0x0000000000001c23       0x7a Hw_Cds.o
 .debug_line    0x0000000000001c9d      0x2f0 Hw_DHT11.o
 .debug_line    0x0000000000001f8d       0x62 usb_desc.o
 .debug_line    0x0000000000001fef       0xc1 usb_endp.o
 .debug_line    0x00000000000020b0      0x13a usb_istr.o
 .debug_line    0x00000000000021ea      0x232 usb_prop.o
 .debug_line    0x000000000000241c      0x1ba usb_pwr.o
 .debug_line    0x00000000000025d6      0x26a hw_config.o
 .debug_line    0x0000000000002840      0x432 usb_core.o
 .debug_line    0x0000000000002c72       0x8d usb_init.o
 .debug_line    0x0000000000002cff       0xbc usb_mem.o
 .debug_line    0x0000000000002dbb      0x687 usb_regs.o
 .debug_line    0x0000000000003442       0xb9 usb_sil.o
 .debug_line    0x00000000000034fb      0x152 usb_int.o
 .debug_line    0x000000000000364d       0xa6 /opt/local/lib/gcc/arm-none-eabi/4.7.2/../../../../arm-none-eabi/lib/thumb/libc.a(lib_a-ctype_.o)
 .debug_line    0x00000000000036f3      0x2b9 /opt/local/lib/gcc/arm-none-eabi/4.7.2/../../../../arm-none-eabi/lib/thumb/libc.a(lib_a-sscanf.o)
 .debug_line    0x00000000000039ac      0x293 /opt/local/lib/gcc/arm-none-eabi/4.7.2/../../../../arm-none-eabi/lib/thumb/libc.a(lib_a-stdio.o)
 .debug_line    0x0000000000003c3f      0x1ce /opt/local/lib/gcc/arm-none-eabi/4.7.2/../../../../arm-none-eabi/lib/thumb/libc.a(lib_a-strlen.o)
 .debug_line    0x0000000000003e0d      0x22f /opt/local/lib/gcc/arm-none-eabi/4.7.2/../../../../arm-none-eabi/lib/thumb/libc.a(lib_a-strncmp.o)
 .debug_line    0x000000000000403c      0x732 /opt/local/lib/gcc/arm-none-eabi/4.7.2/../../../../arm-none-eabi/lib/thumb/libc.a(lib_a-svfscanf.o)
 .debug_line    0x000000000000476e      0x26d /opt/local/lib/gcc/arm-none-eabi/4.7.2/../../../../arm-none-eabi/lib/thumb/libc.a(lib_a-writer.o)
 .debug_line    0x00000000000049db      0x26c /opt/local/lib/gcc/arm-none-eabi/4.7.2/../../../../arm-none-eabi/lib/thumb/libc.a(lib_a-closer.o)
 .debug_line    0x0000000000004c47      0x1c8 /opt/local/lib/gcc/arm-none-eabi/4.7.2/../../../../arm-none-eabi/lib/thumb/libc.a(lib_a-impure.o)
 .debug_line    0x0000000000004e0f      0x1db /opt/local/lib/gcc/arm-none-eabi/4.7.2/../../../../arm-none-eabi/lib/thumb/libc.a(lib_a-iswspace.o)
 .debug_line    0x0000000000004fea      0x2af /opt/local/lib/gcc/arm-none-eabi/4.7.2/../../../../arm-none-eabi/lib/thumb/libc.a(lib_a-locale.o)
 .debug_line    0x0000000000005299      0x26d /opt/local/lib/gcc/arm-none-eabi/4.7.2/../../../../arm-none-eabi/lib/thumb/libc.a(lib_a-lseekr.o)
 .debug_line    0x0000000000005506      0x28b /opt/local/lib/gcc/arm-none-eabi/4.7.2/../../../../arm-none-eabi/lib/thumb/libc.a(lib_a-mbrtowc.o)
 .debug_line    0x0000000000005791      0x296 /opt/local/lib/gcc/arm-none-eabi/4.7.2/../../../../arm-none-eabi/lib/thumb/libc.a(lib_a-mbtowc_r.o)
 .debug_line    0x0000000000005a27      0x217 /opt/local/lib/gcc/arm-none-eabi/4.7.2/../../../../arm-none-eabi/lib/thumb/libc.a(lib_a-memset.o)
 .debug_line    0x0000000000005c3e      0x26c /opt/local/lib/gcc/arm-none-eabi/4.7.2/../../../../arm-none-eabi/lib/thumb/libc.a(lib_a-readr.o)
 .debug_line    0x0000000000005eaa      0x2a7 /opt/local/lib/gcc/arm-none-eabi/4.7.2/../../../../arm-none-eabi/lib/thumb/libc.a(lib_a-reent.o)
 .debug_line    0x0000000000006151      0x212 /opt/local/lib/gcc/arm-none-eabi/4.7.2/../../../../arm-none-eabi/lib/thumb/libc.a(lib_a-s_fpclassify.o)
 .debug_line    0x0000000000006363      0x185 /opt/local/lib/gcc/arm-none-eabi/4.7.2/../../../../arm-none-eabi/lib/thumb/libc.a(lib_a-sccl.o)
 .debug_line    0x00000000000064e8      0x13c /opt/local/lib/gcc/arm-none-eabi/4.7.2/../../../../arm-none-eabi/lib/thumb/libc.a(lib_a-sf_nan.o)
 .debug_line    0x0000000000006624      0x2ab /opt/local/lib/gcc/arm-none-eabi/4.7.2/../../../../arm-none-eabi/lib/thumb/libc.a(lib_a-sprintf.o)
 .debug_line    0x00000000000068cf      0x145 /opt/local/lib/gcc/arm-none-eabi/4.7.2/../../../../arm-none-eabi/lib/thumb/libc.a(lib_a-strcmp.o)
 .debug_line    0x0000000000006a14      0x793 /opt/local/lib/gcc/arm-none-eabi/4.7.2/../../../../arm-none-eabi/lib/thumb/libc.a(lib_a-strtod.o)
 .debug_line    0x00000000000071a7      0x300 /opt/local/lib/gcc/arm-none-eabi/4.7.2/../../../../arm-none-eabi/lib/thumb/libc.a(lib_a-strtol.o)
 .debug_line    0x00000000000074a7      0x2f5 /opt/local/lib/gcc/arm-none-eabi/4.7.2/../../../../arm-none-eabi/lib/thumb/libc.a(lib_a-strtoul.o)
 .debug_line    0x000000000000779c      0x650 /opt/local/lib/gcc/arm-none-eabi/4.7.2/../../../../arm-none-eabi/lib/thumb/libc.a(lib_a-svfiscanf.o)
 .debug_line    0x0000000000007dec      0xa51 /opt/local/lib/gcc/arm-none-eabi/4.7.2/../../../../arm-none-eabi/lib/thumb/libc.a(lib_a-svfprintf.o)
 .debug_line    0x000000000000883d      0x46a /opt/local/lib/gcc/arm-none-eabi/4.7.2/../../../../arm-none-eabi/lib/thumb/libc.a(lib_a-syscalls.o)
 .debug_line    0x0000000000008ca7      0x306 /opt/local/lib/gcc/arm-none-eabi/4.7.2/../../../../arm-none-eabi/lib/thumb/libc.a(lib_a-ungetc.o)
 .debug_line    0x0000000000008fad      0x844 /opt/local/lib/gcc/arm-none-eabi/4.7.2/../../../../arm-none-eabi/lib/thumb/libc.a(lib_a-dtoa.o)
 .debug_line    0x00000000000097f1      0x1e5 /opt/local/lib/gcc/arm-none-eabi/4.7.2/../../../../arm-none-eabi/lib/thumb/libc.a(lib_a-errno.o)
 .debug_line    0x00000000000099d6      0x339 /opt/local/lib/gcc/arm-none-eabi/4.7.2/../../../../arm-none-eabi/lib/thumb/libc.a(lib_a-fflush.o)
 .debug_line    0x0000000000009d0f      0x321 /opt/local/lib/gcc/arm-none-eabi/4.7.2/../../../../arm-none-eabi/lib/thumb/libc.a(lib_a-findfp.o)
 .debug_line    0x000000000000a030      0x337 /opt/local/lib/gcc/arm-none-eabi/4.7.2/../../../../arm-none-eabi/lib/thumb/libc.a(lib_a-freer.o)
 .debug_line    0x000000000000a367      0x2bc /opt/local/lib/gcc/arm-none-eabi/4.7.2/../../../../arm-none-eabi/lib/thumb/libc.a(lib_a-fwalk.o)
 .debug_line    0x000000000000a623      0x501 /opt/local/lib/gcc/arm-none-eabi/4.7.2/../../../../arm-none-eabi/lib/thumb/libc.a(lib_a-gdtoa-gethex.o)
 .debug_line    0x000000000000ab24      0x1db /opt/local/lib/gcc/arm-none-eabi/4.7.2/../../../../arm-none-eabi/lib/thumb/libc.a(lib_a-gdtoa-hexnan.o)
 .debug_line    0x000000000000acff      0x490 /opt/local/lib/gcc/arm-none-eabi/4.7.2/../../../../arm-none-eabi/lib/thumb/libc.a(lib_a-mallocr.o)
 .debug_line    0x000000000000b18f      0x20a /opt/local/lib/gcc/arm-none-eabi/4.7.2/../../../../arm-none-eabi/lib/thumb/libc.a(lib_a-memchr-stub.o)
 .debug_line    0x000000000000b399      0x241 /opt/local/lib/gcc/arm-none-eabi/4.7.2/../../../../arm-none-eabi/lib/thumb/libc.a(lib_a-memcpy-stub.o)
 .debug_line    0x000000000000b5da      0x1da /opt/local/lib/gcc/arm-none-eabi/4.7.2/../../../../arm-none-eabi/lib/thumb/libc.a(lib_a-mlock.o)
 .debug_line    0x000000000000b7b4      0x72f /opt/local/lib/gcc/arm-none-eabi/4.7.2/../../../../arm-none-eabi/lib/thumb/libc.a(lib_a-mprec.o)
 .debug_line    0x000000000000bee3      0x359 /opt/local/lib/gcc/arm-none-eabi/4.7.2/../../../../arm-none-eabi/lib/thumb/libc.a(lib_a-reallocr.o)
 .debug_line    0x000000000000c23c      0x26b /opt/local/lib/gcc/arm-none-eabi/4.7.2/../../../../arm-none-eabi/lib/thumb/libc.a(lib_a-sbrkr.o)
 .debug_line    0x000000000000c4a7      0x699 /opt/local/lib/gcc/arm-none-eabi/4.7.2/../../../../arm-none-eabi/lib/thumb/libc.a(lib_a-svfiprintf.o)
 .debug_line    0x000000000000cb40      0x209 /opt/local/lib/gcc/arm-none-eabi/4.7.2/../../../../arm-none-eabi/lib/thumb/libc.a(lib_a-callocr.o)
 .debug_line    0x000000000000cd49      0x2bd /opt/local/lib/gcc/arm-none-eabi/4.7.2/../../../../arm-none-eabi/lib/thumb/libc.a(lib_a-fclose.o)
 .debug_line    0x000000000000d006      0x254 /opt/local/lib/gcc/arm-none-eabi/4.7.2/../../../../arm-none-eabi/lib/thumb/libc.a(lib_a-memmove.o)
 .debug_line    0x000000000000d25a       0xe5 /opt/local/lib/gcc/arm-none-eabi/4.7.2/thumb/libgcc.a(_udivsi3.o)
 .debug_line    0x000000000000d33f       0xf1 /opt/local/lib/gcc/arm-none-eabi/4.7.2/thumb/libgcc.a(_divsi3.o)
 .debug_line    0x000000000000d430       0xb8 /opt/local/lib/gcc/arm-none-eabi/4.7.2/thumb/libgcc.a(_dvmd_tls.o)
 .debug_line    0x000000000000d4e8      0x1bf /opt/local/lib/gcc/arm-none-eabi/4.7.2/thumb/libgcc.a(_arm_addsubdf3.o)
 .debug_line    0x000000000000d6a7      0x1d7 /opt/local/lib/gcc/arm-none-eabi/4.7.2/thumb/libgcc.a(_arm_muldivdf3.o)
 .debug_line    0x000000000000d87e      0x105 /opt/local/lib/gcc/arm-none-eabi/4.7.2/thumb/libgcc.a(_arm_cmpdf2.o)
 .debug_line    0x000000000000d983       0xcf /opt/local/lib/gcc/arm-none-eabi/4.7.2/thumb/libgcc.a(_arm_fixdfsi.o)
 .debug_line    0x000000000000da52       0xcd /opt/local/lib/gcc/arm-none-eabi/4.7.2/thumb/libgcc.a(_arm_fixunsdfsi.o)
 .debug_line    0x000000000000db1f       0xe0 /opt/local/lib/gcc/arm-none-eabi/4.7.2/thumb/libgcc.a(_arm_truncdfsf2.o)

.debug_str      0x0000000000000000     0x5617
 .debug_str     0x0000000000000000       0xa5 main.o
                                         0xc3 (size before relaxing)
 .debug_str     0x00000000000000a5       0x1c Ap.o
                                         0xbd (size before relaxing)
 .debug_str     0x00000000000000c1      0x338 Ap_StrCmd.o
                                        0x416 (size before relaxing)
 .debug_str     0x00000000000003f9       0xf7 Ap_StrCmd_Q.o
                                        0x1aa (size before relaxing)
 .debug_str     0x00000000000004f0       0xaf Ap_EduMenu.o
                                        0x16b (size before relaxing)
 .debug_str     0x000000000000059f      0x111 Lb_Printf.o
                                        0x1e1 (size before relaxing)
 .debug_str     0x00000000000006b0       0x83 Hw_StartUp.o
                                        0x136 (size before relaxing)
 .debug_str     0x0000000000000733       0x37 Hw.o
                                         0xdd (size before relaxing)
 .debug_str     0x000000000000076a      0x164 Hw_Uart.o
                                        0x215 (size before relaxing)
 .debug_str     0x00000000000008ce       0x24 Hw_PLL.o
                                         0xc5 (size before relaxing)
 .debug_str     0x00000000000008f2       0x9b Hw_ISR.o
                                        0x13c (size before relaxing)
 .debug_str     0x000000000000098d      0x1b9 Hw_Timer.o
                                        0x270 (size before relaxing)
 .debug_str     0x0000000000000b46       0xc7 Hw_Uart_Q.o
                                        0x168 (size before relaxing)
 .debug_str     0x0000000000000c0d       0x74 Hw_Adc.o
                                        0x115 (size before relaxing)
 .debug_str     0x0000000000000c81       0x55 Hw_Led.o
                                         0xfc (size before relaxing)
 .debug_str     0x0000000000000cd6       0x44 Hw_VCom.o
                                        0x11d (size before relaxing)
 .debug_str     0x0000000000000d1a      0x123 Hw_VBus.o
                                        0x1d1 (size before relaxing)
 .debug_str     0x0000000000000e3d      0x256 Hw_KeyPad.o
                                        0x334 (size before relaxing)
 .debug_str     0x0000000000001093       0x9b Hw_7Seg.o
                                        0x163 (size before relaxing)
 .debug_str     0x000000000000112e       0xc3 Hw_CLcd.o
                                        0x18c (size before relaxing)
 .debug_str     0x00000000000011f1       0x47 Hw_Cds.o
                                         0xe8 (size before relaxing)
 .debug_str     0x0000000000001238      0x1d8 Hw_DHT11.o
                                        0x2a0 (size before relaxing)
 .debug_str     0x0000000000001410       0xe1 usb_desc.o
                                        0x18a (size before relaxing)
 .debug_str     0x00000000000014f1      0x12d usb_endp.o
                                        0x1df (size before relaxing)
 .debug_str     0x000000000000161e      0x1c4 usb_istr.o
                                        0x2f7 (size before relaxing)
 .debug_str     0x00000000000017e2      0x4ff usb_prop.o
                                        0x894 (size before relaxing)
 .debug_str     0x0000000000001ce1       0x8f usb_pwr.o
                                        0x2a9 (size before relaxing)
 .debug_str     0x0000000000001d70      0x179 hw_config.o
                                        0x45d (size before relaxing)
 .debug_str     0x0000000000001ee9      0x438 usb_core.o
                                        0x9a6 (size before relaxing)
 .debug_str     0x0000000000002321       0x43 usb_init.o
                                        0x485 (size before relaxing)
 .debug_str     0x0000000000002364       0x7f usb_mem.o
                                        0x13a (size before relaxing)
 .debug_str     0x00000000000023e3      0x3eb usb_regs.o
                                        0x4c2 (size before relaxing)
 .debug_str     0x00000000000027ce       0x7d usb_sil.o
                                        0x148 (size before relaxing)
 .debug_str     0x000000000000284b       0x3c usb_int.o
                                        0x139 (size before relaxing)
 .debug_str     0x0000000000002887       0x8d /opt/local/lib/gcc/arm-none-eabi/4.7.2/../../../../arm-none-eabi/lib/thumb/libc.a(lib_a-ctype_.o)
                                         0xb5 (size before relaxing)
 .debug_str     0x0000000000002914      0x4a5 /opt/local/lib/gcc/arm-none-eabi/4.7.2/../../../../arm-none-eabi/lib/thumb/libc.a(lib_a-sscanf.o)
                                        0x5c2 (size before relaxing)
 .debug_str     0x0000000000002db9       0xeb /opt/local/lib/gcc/arm-none-eabi/4.7.2/../../../../arm-none-eabi/lib/thumb/libc.a(lib_a-stdio.o)
                                        0x5e3 (size before relaxing)
 .debug_str     0x0000000000002ea4       0x93 /opt/local/lib/gcc/arm-none-eabi/4.7.2/../../../../arm-none-eabi/lib/thumb/libc.a(lib_a-strlen.o)
                                        0x13f (size before relaxing)
 .debug_str     0x0000000000002f37       0x8f /opt/local/lib/gcc/arm-none-eabi/4.7.2/../../../../arm-none-eabi/lib/thumb/libc.a(lib_a-strncmp.o)
                                        0x134 (size before relaxing)
 .debug_str     0x0000000000002fc6      0x1f9 /opt/local/lib/gcc/arm-none-eabi/4.7.2/../../../../arm-none-eabi/lib/thumb/libc.a(lib_a-svfscanf.o)
                                        0x75c (size before relaxing)
 .debug_str     0x00000000000031bf       0x85 /opt/local/lib/gcc/arm-none-eabi/4.7.2/../../../../arm-none-eabi/lib/thumb/libc.a(lib_a-writer.o)
                                        0x4f1 (size before relaxing)
 .debug_str     0x0000000000003244       0x85 /opt/local/lib/gcc/arm-none-eabi/4.7.2/../../../../arm-none-eabi/lib/thumb/libc.a(lib_a-closer.o)
                                        0x4e1 (size before relaxing)
 .debug_str     0x00000000000032c9       0xa4 /opt/local/lib/gcc/arm-none-eabi/4.7.2/../../../../arm-none-eabi/lib/thumb/libc.a(lib_a-impure.o)
                                        0x4fd (size before relaxing)
 .debug_str     0x000000000000336d       0x87 /opt/local/lib/gcc/arm-none-eabi/4.7.2/../../../../arm-none-eabi/lib/thumb/libc.a(lib_a-iswspace.o)
                                        0x143 (size before relaxing)
 .debug_str     0x00000000000033f4      0x2e1 /opt/local/lib/gcc/arm-none-eabi/4.7.2/../../../../arm-none-eabi/lib/thumb/libc.a(lib_a-locale.o)
                                        0x7e6 (size before relaxing)
 .debug_str     0x00000000000036d5       0x8c /opt/local/lib/gcc/arm-none-eabi/4.7.2/../../../../arm-none-eabi/lib/thumb/libc.a(lib_a-lseekr.o)
                                        0x4f6 (size before relaxing)
 .debug_str     0x0000000000003761      0x125 /opt/local/lib/gcc/arm-none-eabi/4.7.2/../../../../arm-none-eabi/lib/thumb/libc.a(lib_a-mbrtowc.o)
                                        0x5ba (size before relaxing)
 .debug_str     0x0000000000003886       0xa7 /opt/local/lib/gcc/arm-none-eabi/4.7.2/../../../../arm-none-eabi/lib/thumb/libc.a(lib_a-mbtowc_r.o)
                                        0x5c2 (size before relaxing)
 .debug_str     0x000000000000392d       0x93 /opt/local/lib/gcc/arm-none-eabi/4.7.2/../../../../arm-none-eabi/lib/thumb/libc.a(lib_a-memset.o)
                                        0x146 (size before relaxing)
 .debug_str     0x00000000000039c0       0x84 /opt/local/lib/gcc/arm-none-eabi/4.7.2/../../../../arm-none-eabi/lib/thumb/libc.a(lib_a-readr.o)
                                        0x4ef (size before relaxing)
 .debug_str     0x0000000000003a44       0xc6 /opt/local/lib/gcc/arm-none-eabi/4.7.2/../../../../arm-none-eabi/lib/thumb/libc.a(lib_a-reent.o)
                                        0x52a (size before relaxing)
 .debug_str     0x0000000000003b0a       0xb9 /opt/local/lib/gcc/arm-none-eabi/4.7.2/../../../../arm-none-eabi/lib/thumb/libc.a(lib_a-s_fpclassify.o)
                                        0x184 (size before relaxing)
 .debug_str     0x0000000000003bc3       0x8c /opt/local/lib/gcc/arm-none-eabi/4.7.2/../../../../arm-none-eabi/lib/thumb/libc.a(lib_a-sccl.o)
                                        0x1c4 (size before relaxing)
 .debug_str     0x0000000000003c4f       0x86 /opt/local/lib/gcc/arm-none-eabi/4.7.2/../../../../arm-none-eabi/lib/thumb/libc.a(lib_a-sf_nan.o)
                                        0x149 (size before relaxing)
 .debug_str     0x0000000000003cd5       0x9e /opt/local/lib/gcc/arm-none-eabi/4.7.2/../../../../arm-none-eabi/lib/thumb/libc.a(lib_a-sprintf.o)
                                        0x5b6 (size before relaxing)
 .debug_str     0x0000000000003d73       0x8b /opt/local/lib/gcc/arm-none-eabi/4.7.2/../../../../arm-none-eabi/lib/thumb/libc.a(lib_a-strcmp.o)
                                        0x130 (size before relaxing)
 .debug_str     0x0000000000003dfe      0x2b3 /opt/local/lib/gcc/arm-none-eabi/4.7.2/../../../../arm-none-eabi/lib/thumb/libc.a(lib_a-strtod.o)
                                        0x900 (size before relaxing)
 .debug_str     0x00000000000040b1       0xa2 /opt/local/lib/gcc/arm-none-eabi/4.7.2/../../../../arm-none-eabi/lib/thumb/libc.a(lib_a-strtol.o)
                                        0x522 (size before relaxing)
 .debug_str     0x0000000000004153       0x9a /opt/local/lib/gcc/arm-none-eabi/4.7.2/../../../../arm-none-eabi/lib/thumb/libc.a(lib_a-strtoul.o)
                                        0x525 (size before relaxing)
 .debug_str     0x00000000000041ed       0x1f /opt/local/lib/gcc/arm-none-eabi/4.7.2/../../../../arm-none-eabi/lib/thumb/libc.a(lib_a-svfiscanf.o)
                                        0x6ff (size before relaxing)
 .debug_str     0x000000000000420c      0x1d0 /opt/local/lib/gcc/arm-none-eabi/4.7.2/../../../../arm-none-eabi/lib/thumb/libc.a(lib_a-svfprintf.o)
                                        0x8fe (size before relaxing)
 .debug_str     0x00000000000043dc      0x3fb /opt/local/lib/gcc/arm-none-eabi/4.7.2/../../../../arm-none-eabi/lib/thumb/libc.a(lib_a-syscalls.o)
                                        0x8c5 (size before relaxing)
 .debug_str     0x00000000000047d7       0xab /opt/local/lib/gcc/arm-none-eabi/4.7.2/../../../../arm-none-eabi/lib/thumb/libc.a(lib_a-ungetc.o)
                                        0x5c4 (size before relaxing)
 .debug_str     0x0000000000004882      0x130 /opt/local/lib/gcc/arm-none-eabi/4.7.2/../../../../arm-none-eabi/lib/thumb/libc.a(lib_a-dtoa.o)
                                        0x64e (size before relaxing)
 .debug_str     0x00000000000049b2       0x84 /opt/local/lib/gcc/arm-none-eabi/4.7.2/../../../../arm-none-eabi/lib/thumb/libc.a(lib_a-errno.o)
                                        0x4e5 (size before relaxing)
 .debug_str     0x0000000000004a36       0xb5 /opt/local/lib/gcc/arm-none-eabi/4.7.2/../../../../arm-none-eabi/lib/thumb/libc.a(lib_a-fflush.o)
                                        0x5d3 (size before relaxing)
 .debug_str     0x0000000000004aeb      0x14c /opt/local/lib/gcc/arm-none-eabi/4.7.2/../../../../arm-none-eabi/lib/thumb/libc.a(lib_a-findfp.o)
                                        0x682 (size before relaxing)
 .debug_str     0x0000000000004c37      0x1ce /opt/local/lib/gcc/arm-none-eabi/4.7.2/../../../../arm-none-eabi/lib/thumb/libc.a(lib_a-freer.o)
                                        0x6e2 (size before relaxing)
 .debug_str     0x0000000000004e05       0x93 /opt/local/lib/gcc/arm-none-eabi/4.7.2/../../../../arm-none-eabi/lib/thumb/libc.a(lib_a-fwalk.o)
                                        0x58e (size before relaxing)
 .debug_str     0x0000000000004e98      0x139 /opt/local/lib/gcc/arm-none-eabi/4.7.2/../../../../arm-none-eabi/lib/thumb/libc.a(lib_a-gdtoa-gethex.o)
                                        0x887 (size before relaxing)
 .debug_str     0x0000000000004fd1       0x94 /opt/local/lib/gcc/arm-none-eabi/4.7.2/../../../../arm-none-eabi/lib/thumb/libc.a(lib_a-gdtoa-hexnan.o)
                                        0x26f (size before relaxing)
 .debug_str     0x0000000000005065       0xcf /opt/local/lib/gcc/arm-none-eabi/4.7.2/../../../../arm-none-eabi/lib/thumb/libc.a(lib_a-mallocr.o)
                                        0x798 (size before relaxing)
 .debug_str     0x0000000000005134       0x9e /opt/local/lib/gcc/arm-none-eabi/4.7.2/../../../../arm-none-eabi/lib/thumb/libc.a(lib_a-memchr-stub.o)
                                        0x156 (size before relaxing)
 .debug_str     0x00000000000051d2       0xb7 /opt/local/lib/gcc/arm-none-eabi/4.7.2/../../../../arm-none-eabi/lib/thumb/libc.a(lib_a-memcpy-stub.o)
                                        0x163 (size before relaxing)
 .debug_str     0x0000000000005289       0x9a /opt/local/lib/gcc/arm-none-eabi/4.7.2/../../../../arm-none-eabi/lib/thumb/libc.a(lib_a-mlock.o)
                                        0x505 (size before relaxing)
 .debug_str     0x0000000000005323       0xc8 /opt/local/lib/gcc/arm-none-eabi/4.7.2/../../../../arm-none-eabi/lib/thumb/libc.a(lib_a-mprec.o)
                                        0x608 (size before relaxing)
 .debug_str     0x00000000000053eb       0x5e /opt/local/lib/gcc/arm-none-eabi/4.7.2/../../../../arm-none-eabi/lib/thumb/libc.a(lib_a-reallocr.o)
                                        0x66a (size before relaxing)
 .debug_str     0x0000000000005449       0x84 /opt/local/lib/gcc/arm-none-eabi/4.7.2/../../../../arm-none-eabi/lib/thumb/libc.a(lib_a-sbrkr.o)
                                        0x4f4 (size before relaxing)
 .debug_str     0x00000000000054cd       0x15 /opt/local/lib/gcc/arm-none-eabi/4.7.2/../../../../arm-none-eabi/lib/thumb/libc.a(lib_a-svfiprintf.o)
                                        0x701 (size before relaxing)
 .debug_str     0x00000000000054e2        0xf /opt/local/lib/gcc/arm-none-eabi/4.7.2/../../../../arm-none-eabi/lib/thumb/libc.a(lib_a-callocr.o)
                                        0x5c2 (size before relaxing)
 .debug_str     0x00000000000054f1       0x96 /opt/local/lib/gcc/arm-none-eabi/4.7.2/../../../../arm-none-eabi/lib/thumb/libc.a(lib_a-fclose.o)
                                        0x5c5 (size before relaxing)
 .debug_str     0x0000000000005587       0x90 /opt/local/lib/gcc/arm-none-eabi/4.7.2/../../../../arm-none-eabi/lib/thumb/libc.a(lib_a-memmove.o)
                                        0x165 (size before relaxing)

.comment        0x0000000000000000       0x11
 .comment       0x0000000000000000       0x11 main.o
                                         0x12 (size before relaxing)
 .comment       0x0000000000000000       0x12 Ap.o
 .comment       0x0000000000000000       0x12 Ap_StrCmd.o
 .comment       0x0000000000000000       0x12 Ap_StrCmd_Q.o
 .comment       0x0000000000000000       0x12 Ap_EduMenu.o
 .comment       0x0000000000000000       0x12 Lb_Printf.o
 .comment       0x0000000000000000       0x12 Hw_StartUp.o
 .comment       0x0000000000000000       0x12 Hw.o
 .comment       0x0000000000000000       0x12 Hw_Uart.o
 .comment       0x0000000000000000       0x12 Hw_PLL.o
 .comment       0x0000000000000000       0x12 Hw_ISR.o
 .comment       0x0000000000000000       0x12 Hw_Timer.o
 .comment       0x0000000000000000       0x12 Hw_Uart_Q.o
 .comment       0x0000000000000000       0x12 Hw_Adc.o
 .comment       0x0000000000000000       0x12 Hw_Led.o
 .comment       0x0000000000000000       0x12 Hw_VCom.o
 .comment       0x0000000000000000       0x12 Hw_VBus.o
 .comment       0x0000000000000000       0x12 Hw_KeyPad.o
 .comment       0x0000000000000000       0x12 Hw_7Seg.o
 .comment       0x0000000000000000       0x12 Hw_CLcd.o
 .comment       0x0000000000000000       0x12 Hw_Cds.o
 .comment       0x0000000000000000       0x12 Hw_DHT11.o
 .comment       0x0000000000000000       0x12 usb_desc.o
 .comment       0x0000000000000000       0x12 usb_endp.o
 .comment       0x0000000000000000       0x12 usb_istr.o
 .comment       0x0000000000000000       0x12 usb_prop.o
 .comment       0x0000000000000000       0x12 usb_pwr.o
 .comment       0x0000000000000000       0x12 hw_config.o
 .comment       0x0000000000000000       0x12 usb_core.o
 .comment       0x0000000000000000       0x12 usb_init.o
 .comment       0x0000000000000000       0x12 usb_mem.o
 .comment       0x0000000000000000       0x12 usb_regs.o
 .comment       0x0000000000000000       0x12 usb_sil.o
 .comment       0x0000000000000000       0x12 usb_int.o
 .comment       0x0000000000000000       0x12 /opt/local/lib/gcc/arm-none-eabi/4.7.2/../../../../arm-none-eabi/lib/thumb/libc.a(lib_a-ctype_.o)
 .comment       0x0000000000000000       0x12 /opt/local/lib/gcc/arm-none-eabi/4.7.2/../../../../arm-none-eabi/lib/thumb/libc.a(lib_a-sscanf.o)
 .comment       0x0000000000000000       0x12 /opt/local/lib/gcc/arm-none-eabi/4.7.2/../../../../arm-none-eabi/lib/thumb/libc.a(lib_a-stdio.o)
 .comment       0x0000000000000000       0x12 /opt/local/lib/gcc/arm-none-eabi/4.7.2/../../../../arm-none-eabi/lib/thumb/libc.a(lib_a-strlen.o)
 .comment       0x0000000000000000       0x12 /opt/local/lib/gcc/arm-none-eabi/4.7.2/../../../../arm-none-eabi/lib/thumb/libc.a(lib_a-strncmp.o)
 .comment       0x0000000000000000       0x12 /opt/local/lib/gcc/arm-none-eabi/4.7.2/../../../../arm-none-eabi/lib/thumb/libc.a(lib_a-svfscanf.o)
 .comment       0x0000000000000000       0x12 /opt/local/lib/gcc/arm-none-eabi/4.7.2/../../../../arm-none-eabi/lib/thumb/libc.a(lib_a-writer.o)
 .comment       0x0000000000000000       0x12 /opt/local/lib/gcc/arm-none-eabi/4.7.2/../../../../arm-none-eabi/lib/thumb/libc.a(lib_a-closer.o)
 .comment       0x0000000000000000       0x12 /opt/local/lib/gcc/arm-none-eabi/4.7.2/../../../../arm-none-eabi/lib/thumb/libc.a(lib_a-impure.o)
 .comment       0x0000000000000000       0x12 /opt/local/lib/gcc/arm-none-eabi/4.7.2/../../../../arm-none-eabi/lib/thumb/libc.a(lib_a-iswspace.o)
 .comment       0x0000000000000000       0x12 /opt/local/lib/gcc/arm-none-eabi/4.7.2/../../../../arm-none-eabi/lib/thumb/libc.a(lib_a-locale.o)
 .comment       0x0000000000000000       0x12 /opt/local/lib/gcc/arm-none-eabi/4.7.2/../../../../arm-none-eabi/lib/thumb/libc.a(lib_a-lseekr.o)
 .comment       0x0000000000000000       0x12 /opt/local/lib/gcc/arm-none-eabi/4.7.2/../../../../arm-none-eabi/lib/thumb/libc.a(lib_a-mbrtowc.o)
 .comment       0x0000000000000000       0x12 /opt/local/lib/gcc/arm-none-eabi/4.7.2/../../../../arm-none-eabi/lib/thumb/libc.a(lib_a-mbtowc_r.o)
 .comment       0x0000000000000000       0x12 /opt/local/lib/gcc/arm-none-eabi/4.7.2/../../../../arm-none-eabi/lib/thumb/libc.a(lib_a-memset.o)
 .comment       0x0000000000000000       0x12 /opt/local/lib/gcc/arm-none-eabi/4.7.2/../../../../arm-none-eabi/lib/thumb/libc.a(lib_a-readr.o)
 .comment       0x0000000000000000       0x12 /opt/local/lib/gcc/arm-none-eabi/4.7.2/../../../../arm-none-eabi/lib/thumb/libc.a(lib_a-reent.o)
 .comment       0x0000000000000000       0x12 /opt/local/lib/gcc/arm-none-eabi/4.7.2/../../../../arm-none-eabi/lib/thumb/libc.a(lib_a-s_fpclassify.o)
 .comment       0x0000000000000000       0x12 /opt/local/lib/gcc/arm-none-eabi/4.7.2/../../../../arm-none-eabi/lib/thumb/libc.a(lib_a-sccl.o)
 .comment       0x0000000000000000       0x12 /opt/local/lib/gcc/arm-none-eabi/4.7.2/../../../../arm-none-eabi/lib/thumb/libc.a(lib_a-sf_nan.o)
 .comment       0x0000000000000000       0x12 /opt/local/lib/gcc/arm-none-eabi/4.7.2/../../../../arm-none-eabi/lib/thumb/libc.a(lib_a-sprintf.o)
 .comment       0x0000000000000000       0x12 /opt/local/lib/gcc/arm-none-eabi/4.7.2/../../../../arm-none-eabi/lib/thumb/libc.a(lib_a-strcmp.o)
 .comment       0x0000000000000000       0x12 /opt/local/lib/gcc/arm-none-eabi/4.7.2/../../../../arm-none-eabi/lib/thumb/libc.a(lib_a-strtod.o)
 .comment       0x0000000000000000       0x12 /opt/local/lib/gcc/arm-none-eabi/4.7.2/../../../../arm-none-eabi/lib/thumb/libc.a(lib_a-strtol.o)
 .comment       0x0000000000000000       0x12 /opt/local/lib/gcc/arm-none-eabi/4.7.2/../../../../arm-none-eabi/lib/thumb/libc.a(lib_a-strtoul.o)
 .comment       0x0000000000000000       0x12 /opt/local/lib/gcc/arm-none-eabi/4.7.2/../../../../arm-none-eabi/lib/thumb/libc.a(lib_a-svfiscanf.o)
 .comment       0x0000000000000000       0x12 /opt/local/lib/gcc/arm-none-eabi/4.7.2/../../../../arm-none-eabi/lib/thumb/libc.a(lib_a-svfprintf.o)
 .comment       0x0000000000000000       0x12 /opt/local/lib/gcc/arm-none-eabi/4.7.2/../../../../arm-none-eabi/lib/thumb/libc.a(lib_a-syscalls.o)
 .comment       0x0000000000000000       0x12 /opt/local/lib/gcc/arm-none-eabi/4.7.2/../../../../arm-none-eabi/lib/thumb/libc.a(lib_a-ungetc.o)
 .comment       0x0000000000000000       0x12 /opt/local/lib/gcc/arm-none-eabi/4.7.2/../../../../arm-none-eabi/lib/thumb/libc.a(lib_a-dtoa.o)
 .comment       0x0000000000000000       0x12 /opt/local/lib/gcc/arm-none-eabi/4.7.2/../../../../arm-none-eabi/lib/thumb/libc.a(lib_a-errno.o)
 .comment       0x0000000000000000       0x12 /opt/local/lib/gcc/arm-none-eabi/4.7.2/../../../../arm-none-eabi/lib/thumb/libc.a(lib_a-fflush.o)
 .comment       0x0000000000000000       0x12 /opt/local/lib/gcc/arm-none-eabi/4.7.2/../../../../arm-none-eabi/lib/thumb/libc.a(lib_a-findfp.o)
 .comment       0x0000000000000000       0x12 /opt/local/lib/gcc/arm-none-eabi/4.7.2/../../../../arm-none-eabi/lib/thumb/libc.a(lib_a-freer.o)
 .comment       0x0000000000000000       0x12 /opt/local/lib/gcc/arm-none-eabi/4.7.2/../../../../arm-none-eabi/lib/thumb/libc.a(lib_a-fwalk.o)
 .comment       0x0000000000000000       0x12 /opt/local/lib/gcc/arm-none-eabi/4.7.2/../../../../arm-none-eabi/lib/thumb/libc.a(lib_a-gdtoa-gethex.o)
 .comment       0x0000000000000000       0x12 /opt/local/lib/gcc/arm-none-eabi/4.7.2/../../../../arm-none-eabi/lib/thumb/libc.a(lib_a-gdtoa-hexnan.o)
 .comment       0x0000000000000000       0x12 /opt/local/lib/gcc/arm-none-eabi/4.7.2/../../../../arm-none-eabi/lib/thumb/libc.a(lib_a-mallocr.o)
 .comment       0x0000000000000000       0x12 /opt/local/lib/gcc/arm-none-eabi/4.7.2/../../../../arm-none-eabi/lib/thumb/libc.a(lib_a-memchr-stub.o)
 .comment       0x0000000000000000       0x12 /opt/local/lib/gcc/arm-none-eabi/4.7.2/../../../../arm-none-eabi/lib/thumb/libc.a(lib_a-memcpy-stub.o)
 .comment       0x0000000000000000       0x12 /opt/local/lib/gcc/arm-none-eabi/4.7.2/../../../../arm-none-eabi/lib/thumb/libc.a(lib_a-mlock.o)
 .comment       0x0000000000000000       0x12 /opt/local/lib/gcc/arm-none-eabi/4.7.2/../../../../arm-none-eabi/lib/thumb/libc.a(lib_a-mprec.o)
 .comment       0x0000000000000000       0x12 /opt/local/lib/gcc/arm-none-eabi/4.7.2/../../../../arm-none-eabi/lib/thumb/libc.a(lib_a-reallocr.o)
 .comment       0x0000000000000000       0x12 /opt/local/lib/gcc/arm-none-eabi/4.7.2/../../../../arm-none-eabi/lib/thumb/libc.a(lib_a-sbrkr.o)
 .comment       0x0000000000000000       0x12 /opt/local/lib/gcc/arm-none-eabi/4.7.2/../../../../arm-none-eabi/lib/thumb/libc.a(lib_a-svfiprintf.o)
 .comment       0x0000000000000000       0x12 /opt/local/lib/gcc/arm-none-eabi/4.7.2/../../../../arm-none-eabi/lib/thumb/libc.a(lib_a-callocr.o)
 .comment       0x0000000000000000       0x12 /opt/local/lib/gcc/arm-none-eabi/4.7.2/../../../../arm-none-eabi/lib/thumb/libc.a(lib_a-fclose.o)
 .comment       0x0000000000000000       0x12 /opt/local/lib/gcc/arm-none-eabi/4.7.2/../../../../arm-none-eabi/lib/thumb/libc.a(lib_a-memmove.o)

.ARM.attributes
                0x0000000000000000       0x35
 .ARM.attributes
                0x0000000000000000       0x33 main.o
 .ARM.attributes
                0x0000000000000033       0x33 Ap.o
 .ARM.attributes
                0x0000000000000066       0x33 Ap_StrCmd.o
 .ARM.attributes
                0x0000000000000099       0x33 Ap_StrCmd_Q.o
 .ARM.attributes
                0x00000000000000cc       0x33 Ap_EduMenu.o
 .ARM.attributes
                0x00000000000000ff       0x33 Lb_Printf.o
 .ARM.attributes
                0x0000000000000132       0x33 Hw_StartUp.o
 .ARM.attributes
                0x0000000000000165       0x33 Hw.o
 .ARM.attributes
                0x0000000000000198       0x33 Hw_Uart.o
 .ARM.attributes
                0x00000000000001cb       0x33 Hw_PLL.o
 .ARM.attributes
                0x00000000000001fe       0x33 Hw_ISR.o
 .ARM.attributes
                0x0000000000000231       0x33 Hw_Timer.o
 .ARM.attributes
                0x0000000000000264       0x33 Hw_Uart_Q.o
 .ARM.attributes
                0x0000000000000297       0x33 Hw_Adc.o
 .ARM.attributes
                0x00000000000002ca       0x33 Hw_Led.o
 .ARM.attributes
                0x00000000000002fd       0x33 Hw_VCom.o
 .ARM.attributes
                0x0000000000000330       0x33 Hw_VBus.o
 .ARM.attributes
                0x0000000000000363       0x33 Hw_KeyPad.o
 .ARM.attributes
                0x0000000000000396       0x33 Hw_7Seg.o
 .ARM.attributes
                0x00000000000003c9       0x33 Hw_CLcd.o
 .ARM.attributes
                0x00000000000003fc       0x33 Hw_Cds.o
 .ARM.attributes
                0x000000000000042f       0x33 Hw_DHT11.o
 .ARM.attributes
                0x0000000000000462       0x33 usb_desc.o
 .ARM.attributes
                0x0000000000000495       0x33 usb_endp.o
 .ARM.attributes
                0x00000000000004c8       0x33 usb_istr.o
 .ARM.attributes
                0x00000000000004fb       0x33 usb_prop.o
 .ARM.attributes
                0x000000000000052e       0x33 usb_pwr.o
 .ARM.attributes
                0x0000000000000561       0x33 hw_config.o
 .ARM.attributes
                0x0000000000000594       0x33 usb_core.o
 .ARM.attributes
                0x00000000000005c7       0x33 usb_init.o
 .ARM.attributes
                0x00000000000005fa       0x33 usb_mem.o
 .ARM.attributes
                0x000000000000062d       0x33 usb_regs.o
 .ARM.attributes
                0x0000000000000660       0x33 usb_sil.o
 .ARM.attributes
                0x0000000000000693       0x33 usb_int.o
 .ARM.attributes
                0x00000000000006c6       0x30 /opt/local/lib/gcc/arm-none-eabi/4.7.2/../../../../arm-none-eabi/lib/thumb/libc.a(lib_a-ctype_.o)
 .ARM.attributes
                0x00000000000006f6       0x30 /opt/local/lib/gcc/arm-none-eabi/4.7.2/../../../../arm-none-eabi/lib/thumb/libc.a(lib_a-sscanf.o)
 .ARM.attributes
                0x0000000000000726       0x30 /opt/local/lib/gcc/arm-none-eabi/4.7.2/../../../../arm-none-eabi/lib/thumb/libc.a(lib_a-stdio.o)
 .ARM.attributes
                0x0000000000000756       0x30 /opt/local/lib/gcc/arm-none-eabi/4.7.2/../../../../arm-none-eabi/lib/thumb/libc.a(lib_a-strlen.o)
 .ARM.attributes
                0x0000000000000786       0x30 /opt/local/lib/gcc/arm-none-eabi/4.7.2/../../../../arm-none-eabi/lib/thumb/libc.a(lib_a-strncmp.o)
 .ARM.attributes
                0x00000000000007b6       0x30 /opt/local/lib/gcc/arm-none-eabi/4.7.2/../../../../arm-none-eabi/lib/thumb/libc.a(lib_a-svfscanf.o)
 .ARM.attributes
                0x00000000000007e6       0x30 /opt/local/lib/gcc/arm-none-eabi/4.7.2/../../../../arm-none-eabi/lib/thumb/libc.a(lib_a-writer.o)
 .ARM.attributes
                0x0000000000000816       0x30 /opt/local/lib/gcc/arm-none-eabi/4.7.2/../../../../arm-none-eabi/lib/thumb/libc.a(lib_a-closer.o)
 .ARM.attributes
                0x0000000000000846       0x30 /opt/local/lib/gcc/arm-none-eabi/4.7.2/../../../../arm-none-eabi/lib/thumb/libc.a(lib_a-impure.o)
 .ARM.attributes
                0x0000000000000876       0x30 /opt/local/lib/gcc/arm-none-eabi/4.7.2/../../../../arm-none-eabi/lib/thumb/libc.a(lib_a-iswspace.o)
 .ARM.attributes
                0x00000000000008a6       0x30 /opt/local/lib/gcc/arm-none-eabi/4.7.2/../../../../arm-none-eabi/lib/thumb/libc.a(lib_a-locale.o)
 .ARM.attributes
                0x00000000000008d6       0x30 /opt/local/lib/gcc/arm-none-eabi/4.7.2/../../../../arm-none-eabi/lib/thumb/libc.a(lib_a-lseekr.o)
 .ARM.attributes
                0x0000000000000906       0x30 /opt/local/lib/gcc/arm-none-eabi/4.7.2/../../../../arm-none-eabi/lib/thumb/libc.a(lib_a-mbrtowc.o)
 .ARM.attributes
                0x0000000000000936       0x30 /opt/local/lib/gcc/arm-none-eabi/4.7.2/../../../../arm-none-eabi/lib/thumb/libc.a(lib_a-mbtowc_r.o)
 .ARM.attributes
                0x0000000000000966       0x30 /opt/local/lib/gcc/arm-none-eabi/4.7.2/../../../../arm-none-eabi/lib/thumb/libc.a(lib_a-memset.o)
 .ARM.attributes
                0x0000000000000996       0x30 /opt/local/lib/gcc/arm-none-eabi/4.7.2/../../../../arm-none-eabi/lib/thumb/libc.a(lib_a-readr.o)
 .ARM.attributes
                0x00000000000009c6       0x30 /opt/local/lib/gcc/arm-none-eabi/4.7.2/../../../../arm-none-eabi/lib/thumb/libc.a(lib_a-reent.o)
 .ARM.attributes
                0x00000000000009f6       0x30 /opt/local/lib/gcc/arm-none-eabi/4.7.2/../../../../arm-none-eabi/lib/thumb/libc.a(lib_a-s_fpclassify.o)
 .ARM.attributes
                0x0000000000000a26       0x30 /opt/local/lib/gcc/arm-none-eabi/4.7.2/../../../../arm-none-eabi/lib/thumb/libc.a(lib_a-sccl.o)
 .ARM.attributes
                0x0000000000000a56       0x30 /opt/local/lib/gcc/arm-none-eabi/4.7.2/../../../../arm-none-eabi/lib/thumb/libc.a(lib_a-sf_nan.o)
 .ARM.attributes
                0x0000000000000a86       0x30 /opt/local/lib/gcc/arm-none-eabi/4.7.2/../../../../arm-none-eabi/lib/thumb/libc.a(lib_a-sprintf.o)
 .ARM.attributes
                0x0000000000000ab6       0x30 /opt/local/lib/gcc/arm-none-eabi/4.7.2/../../../../arm-none-eabi/lib/thumb/libc.a(lib_a-strcmp.o)
 .ARM.attributes
                0x0000000000000ae6       0x30 /opt/local/lib/gcc/arm-none-eabi/4.7.2/../../../../arm-none-eabi/lib/thumb/libc.a(lib_a-strtod.o)
 .ARM.attributes
                0x0000000000000b16       0x30 /opt/local/lib/gcc/arm-none-eabi/4.7.2/../../../../arm-none-eabi/lib/thumb/libc.a(lib_a-strtol.o)
 .ARM.attributes
                0x0000000000000b46       0x30 /opt/local/lib/gcc/arm-none-eabi/4.7.2/../../../../arm-none-eabi/lib/thumb/libc.a(lib_a-strtoul.o)
 .ARM.attributes
                0x0000000000000b76       0x30 /opt/local/lib/gcc/arm-none-eabi/4.7.2/../../../../arm-none-eabi/lib/thumb/libc.a(lib_a-svfiscanf.o)
 .ARM.attributes
                0x0000000000000ba6       0x30 /opt/local/lib/gcc/arm-none-eabi/4.7.2/../../../../arm-none-eabi/lib/thumb/libc.a(lib_a-svfprintf.o)
 .ARM.attributes
                0x0000000000000bd6       0x30 /opt/local/lib/gcc/arm-none-eabi/4.7.2/../../../../arm-none-eabi/lib/thumb/libc.a(lib_a-syscalls.o)
 .ARM.attributes
                0x0000000000000c06       0x30 /opt/local/lib/gcc/arm-none-eabi/4.7.2/../../../../arm-none-eabi/lib/thumb/libc.a(lib_a-ungetc.o)
 .ARM.attributes
                0x0000000000000c36       0x30 /opt/local/lib/gcc/arm-none-eabi/4.7.2/../../../../arm-none-eabi/lib/thumb/libc.a(lib_a-dtoa.o)
 .ARM.attributes
                0x0000000000000c66       0x30 /opt/local/lib/gcc/arm-none-eabi/4.7.2/../../../../arm-none-eabi/lib/thumb/libc.a(lib_a-errno.o)
 .ARM.attributes
                0x0000000000000c96       0x30 /opt/local/lib/gcc/arm-none-eabi/4.7.2/../../../../arm-none-eabi/lib/thumb/libc.a(lib_a-fflush.o)
 .ARM.attributes
                0x0000000000000cc6       0x30 /opt/local/lib/gcc/arm-none-eabi/4.7.2/../../../../arm-none-eabi/lib/thumb/libc.a(lib_a-findfp.o)
 .ARM.attributes
                0x0000000000000cf6       0x30 /opt/local/lib/gcc/arm-none-eabi/4.7.2/../../../../arm-none-eabi/lib/thumb/libc.a(lib_a-freer.o)
 .ARM.attributes
                0x0000000000000d26       0x30 /opt/local/lib/gcc/arm-none-eabi/4.7.2/../../../../arm-none-eabi/lib/thumb/libc.a(lib_a-fwalk.o)
 .ARM.attributes
                0x0000000000000d56       0x30 /opt/local/lib/gcc/arm-none-eabi/4.7.2/../../../../arm-none-eabi/lib/thumb/libc.a(lib_a-gdtoa-gethex.o)
 .ARM.attributes
                0x0000000000000d86       0x30 /opt/local/lib/gcc/arm-none-eabi/4.7.2/../../../../arm-none-eabi/lib/thumb/libc.a(lib_a-gdtoa-hexnan.o)
 .ARM.attributes
                0x0000000000000db6       0x30 /opt/local/lib/gcc/arm-none-eabi/4.7.2/../../../../arm-none-eabi/lib/thumb/libc.a(lib_a-mallocr.o)
 .ARM.attributes
                0x0000000000000de6       0x30 /opt/local/lib/gcc/arm-none-eabi/4.7.2/../../../../arm-none-eabi/lib/thumb/libc.a(lib_a-memchr-stub.o)
 .ARM.attributes
                0x0000000000000e16       0x30 /opt/local/lib/gcc/arm-none-eabi/4.7.2/../../../../arm-none-eabi/lib/thumb/libc.a(lib_a-memcpy-stub.o)
 .ARM.attributes
                0x0000000000000e46       0x30 /opt/local/lib/gcc/arm-none-eabi/4.7.2/../../../../arm-none-eabi/lib/thumb/libc.a(lib_a-mlock.o)
 .ARM.attributes
                0x0000000000000e76       0x30 /opt/local/lib/gcc/arm-none-eabi/4.7.2/../../../../arm-none-eabi/lib/thumb/libc.a(lib_a-mprec.o)
 .ARM.attributes
                0x0000000000000ea6       0x30 /opt/local/lib/gcc/arm-none-eabi/4.7.2/../../../../arm-none-eabi/lib/thumb/libc.a(lib_a-reallocr.o)
 .ARM.attributes
                0x0000000000000ed6       0x30 /opt/local/lib/gcc/arm-none-eabi/4.7.2/../../../../arm-none-eabi/lib/thumb/libc.a(lib_a-sbrkr.o)
 .ARM.attributes
                0x0000000000000f06       0x30 /opt/local/lib/gcc/arm-none-eabi/4.7.2/../../../../arm-none-eabi/lib/thumb/libc.a(lib_a-svfiprintf.o)
 .ARM.attributes
                0x0000000000000f36       0x30 /opt/local/lib/gcc/arm-none-eabi/4.7.2/../../../../arm-none-eabi/lib/thumb/libc.a(lib_a-callocr.o)
 .ARM.attributes
                0x0000000000000f66       0x30 /opt/local/lib/gcc/arm-none-eabi/4.7.2/../../../../arm-none-eabi/lib/thumb/libc.a(lib_a-fclose.o)
 .ARM.attributes
                0x0000000000000f96       0x30 /opt/local/lib/gcc/arm-none-eabi/4.7.2/../../../../arm-none-eabi/lib/thumb/libc.a(lib_a-memmove.o)
 .ARM.attributes
                0x0000000000000fc6       0x18 /opt/local/lib/gcc/arm-none-eabi/4.7.2/thumb/libgcc.a(_udivsi3.o)
 .ARM.attributes
                0x0000000000000fde       0x18 /opt/local/lib/gcc/arm-none-eabi/4.7.2/thumb/libgcc.a(_divsi3.o)
 .ARM.attributes
                0x0000000000000ff6       0x16 /opt/local/lib/gcc/arm-none-eabi/4.7.2/thumb/libgcc.a(_dvmd_tls.o)
 .ARM.attributes
                0x000000000000100c       0x18 /opt/local/lib/gcc/arm-none-eabi/4.7.2/thumb/libgcc.a(_arm_addsubdf3.o)
 .ARM.attributes
                0x0000000000001024       0x18 /opt/local/lib/gcc/arm-none-eabi/4.7.2/thumb/libgcc.a(_arm_muldivdf3.o)
 .ARM.attributes
                0x000000000000103c       0x18 /opt/local/lib/gcc/arm-none-eabi/4.7.2/thumb/libgcc.a(_arm_cmpdf2.o)
 .ARM.attributes
                0x0000000000001054       0x18 /opt/local/lib/gcc/arm-none-eabi/4.7.2/thumb/libgcc.a(_arm_fixdfsi.o)
 .ARM.attributes
                0x000000000000106c       0x18 /opt/local/lib/gcc/arm-none-eabi/4.7.2/thumb/libgcc.a(_arm_fixunsdfsi.o)
 .ARM.attributes
                0x0000000000001084       0x18 /opt/local/lib/gcc/arm-none-eabi/4.7.2/thumb/libgcc.a(_arm_truncdfsf2.o)

.debug_frame    0x0000000000000000     0x2fd0
 .debug_frame   0x0000000000000000       0x48 main.o
 .debug_frame   0x0000000000000048       0x2c Ap.o
 .debug_frame   0x0000000000000074      0x268 Ap_StrCmd.o
 .debug_frame   0x00000000000002dc       0xa0 Ap_StrCmd_Q.o
 .debug_frame   0x000000000000037c       0xbc Ap_EduMenu.o
 .debug_frame   0x0000000000000438      0x1a4 Lb_Printf.o
 .debug_frame   0x00000000000005dc       0x34 Hw_StartUp.o
 .debug_frame   0x0000000000000610       0x60 Hw.o
 .debug_frame   0x0000000000000670      0x1d4 Hw_Uart.o
 .debug_frame   0x0000000000000844       0x20 Hw_PLL.o
 .debug_frame   0x0000000000000864       0x40 Hw_ISR.o
 .debug_frame   0x00000000000008a4      0x134 Hw_Timer.o
 .debug_frame   0x00000000000009d8       0x88 Hw_Uart_Q.o
 .debug_frame   0x0000000000000a60       0x70 Hw_Adc.o
 .debug_frame   0x0000000000000ad0       0x94 Hw_Led.o
 .debug_frame   0x0000000000000b64       0x64 Hw_VCom.o
 .debug_frame   0x0000000000000bc8      0x130 Hw_VBus.o
 .debug_frame   0x0000000000000cf8      0x138 Hw_KeyPad.o
 .debug_frame   0x0000000000000e30       0xb0 Hw_7Seg.o
 .debug_frame   0x0000000000000ee0      0x12c Hw_CLcd.o
 .debug_frame   0x000000000000100c       0x3c Hw_Cds.o
 .debug_frame   0x0000000000001048      0x170 Hw_DHT11.o
 .debug_frame   0x00000000000011b8       0x68 usb_endp.o
 .debug_frame   0x0000000000001220       0x34 usb_istr.o
 .debug_frame   0x0000000000001254      0x148 usb_prop.o
 .debug_frame   0x000000000000139c       0xac usb_pwr.o
 .debug_frame   0x0000000000001448      0x168 hw_config.o
 .debug_frame   0x00000000000015b0      0x1ec usb_core.o
 .debug_frame   0x000000000000179c       0x2c usb_init.o
 .debug_frame   0x00000000000017c8       0x38 usb_mem.o
 .debug_frame   0x0000000000001800      0x3e4 usb_regs.o
 .debug_frame   0x0000000000001be4       0x68 usb_sil.o
 .debug_frame   0x0000000000001c4c       0x70 usb_int.o
 .debug_frame   0x0000000000001cbc       0x54 /opt/local/lib/gcc/arm-none-eabi/4.7.2/../../../../arm-none-eabi/lib/thumb/libc.a(lib_a-sscanf.o)
 .debug_frame   0x0000000000001d10       0x90 /opt/local/lib/gcc/arm-none-eabi/4.7.2/../../../../arm-none-eabi/lib/thumb/libc.a(lib_a-stdio.o)
 .debug_frame   0x0000000000001da0       0x20 /opt/local/lib/gcc/arm-none-eabi/4.7.2/../../../../arm-none-eabi/lib/thumb/libc.a(lib_a-strlen.o)
 .debug_frame   0x0000000000001dc0       0x2c /opt/local/lib/gcc/arm-none-eabi/4.7.2/../../../../arm-none-eabi/lib/thumb/libc.a(lib_a-strncmp.o)
 .debug_frame   0x0000000000001dec       0x3c /opt/local/lib/gcc/arm-none-eabi/4.7.2/../../../../arm-none-eabi/lib/thumb/libc.a(lib_a-svfscanf.o)
 .debug_frame   0x0000000000001e28       0x2c /opt/local/lib/gcc/arm-none-eabi/4.7.2/../../../../arm-none-eabi/lib/thumb/libc.a(lib_a-writer.o)
 .debug_frame   0x0000000000001e54       0x2c /opt/local/lib/gcc/arm-none-eabi/4.7.2/../../../../arm-none-eabi/lib/thumb/libc.a(lib_a-closer.o)
 .debug_frame   0x0000000000001e80       0x28 /opt/local/lib/gcc/arm-none-eabi/4.7.2/../../../../arm-none-eabi/lib/thumb/libc.a(lib_a-iswspace.o)
 .debug_frame   0x0000000000001ea8       0xa4 /opt/local/lib/gcc/arm-none-eabi/4.7.2/../../../../arm-none-eabi/lib/thumb/libc.a(lib_a-locale.o)
 .debug_frame   0x0000000000001f4c       0x2c /opt/local/lib/gcc/arm-none-eabi/4.7.2/../../../../arm-none-eabi/lib/thumb/libc.a(lib_a-lseekr.o)
 .debug_frame   0x0000000000001f78       0x64 /opt/local/lib/gcc/arm-none-eabi/4.7.2/../../../../arm-none-eabi/lib/thumb/libc.a(lib_a-mbrtowc.o)
 .debug_frame   0x0000000000001fdc       0x50 /opt/local/lib/gcc/arm-none-eabi/4.7.2/../../../../arm-none-eabi/lib/thumb/libc.a(lib_a-mbtowc_r.o)
 .debug_frame   0x000000000000202c       0x2c /opt/local/lib/gcc/arm-none-eabi/4.7.2/../../../../arm-none-eabi/lib/thumb/libc.a(lib_a-memset.o)
 .debug_frame   0x0000000000002058       0x2c /opt/local/lib/gcc/arm-none-eabi/4.7.2/../../../../arm-none-eabi/lib/thumb/libc.a(lib_a-readr.o)
 .debug_frame   0x0000000000002084       0x68 /opt/local/lib/gcc/arm-none-eabi/4.7.2/../../../../arm-none-eabi/lib/thumb/libc.a(lib_a-reent.o)
 .debug_frame   0x00000000000020ec       0x28 /opt/local/lib/gcc/arm-none-eabi/4.7.2/../../../../arm-none-eabi/lib/thumb/libc.a(lib_a-s_fpclassify.o)
 .debug_frame   0x0000000000002114       0x2c /opt/local/lib/gcc/arm-none-eabi/4.7.2/../../../../arm-none-eabi/lib/thumb/libc.a(lib_a-sccl.o)
 .debug_frame   0x0000000000002140       0x20 /opt/local/lib/gcc/arm-none-eabi/4.7.2/../../../../arm-none-eabi/lib/thumb/libc.a(lib_a-sf_nan.o)
 .debug_frame   0x0000000000002160       0x4c /opt/local/lib/gcc/arm-none-eabi/4.7.2/../../../../arm-none-eabi/lib/thumb/libc.a(lib_a-sprintf.o)
 .debug_frame   0x00000000000021ac       0x20 /opt/local/lib/gcc/arm-none-eabi/4.7.2/../../../../arm-none-eabi/lib/thumb/libc.a(lib_a-strcmp.o)
 .debug_frame   0x00000000000021cc       0x70 /opt/local/lib/gcc/arm-none-eabi/4.7.2/../../../../arm-none-eabi/lib/thumb/libc.a(lib_a-strtod.o)
 .debug_frame   0x000000000000223c       0x58 /opt/local/lib/gcc/arm-none-eabi/4.7.2/../../../../arm-none-eabi/lib/thumb/libc.a(lib_a-strtol.o)
 .debug_frame   0x0000000000002294       0x58 /opt/local/lib/gcc/arm-none-eabi/4.7.2/../../../../arm-none-eabi/lib/thumb/libc.a(lib_a-strtoul.o)
 .debug_frame   0x00000000000022ec       0x9c /opt/local/lib/gcc/arm-none-eabi/4.7.2/../../../../arm-none-eabi/lib/thumb/libc.a(lib_a-svfiscanf.o)
 .debug_frame   0x0000000000002388       0x3c /opt/local/lib/gcc/arm-none-eabi/4.7.2/../../../../arm-none-eabi/lib/thumb/libc.a(lib_a-svfprintf.o)
 .debug_frame   0x00000000000023c4      0x320 /opt/local/lib/gcc/arm-none-eabi/4.7.2/../../../../arm-none-eabi/lib/thumb/libc.a(lib_a-syscalls.o)
 .debug_frame   0x00000000000026e4       0x6c /opt/local/lib/gcc/arm-none-eabi/4.7.2/../../../../arm-none-eabi/lib/thumb/libc.a(lib_a-ungetc.o)
 .debug_frame   0x0000000000002750       0x68 /opt/local/lib/gcc/arm-none-eabi/4.7.2/../../../../arm-none-eabi/lib/thumb/libc.a(lib_a-dtoa.o)
 .debug_frame   0x00000000000027b8       0x20 /opt/local/lib/gcc/arm-none-eabi/4.7.2/../../../../arm-none-eabi/lib/thumb/libc.a(lib_a-errno.o)
 .debug_frame   0x00000000000027d8       0x68 /opt/local/lib/gcc/arm-none-eabi/4.7.2/../../../../arm-none-eabi/lib/thumb/libc.a(lib_a-fflush.o)
 .debug_frame   0x0000000000002840      0x138 /opt/local/lib/gcc/arm-none-eabi/4.7.2/../../../../arm-none-eabi/lib/thumb/libc.a(lib_a-findfp.o)
 .debug_frame   0x0000000000002978       0x54 /opt/local/lib/gcc/arm-none-eabi/4.7.2/../../../../arm-none-eabi/lib/thumb/libc.a(lib_a-freer.o)
 .debug_frame   0x00000000000029cc       0x5c /opt/local/lib/gcc/arm-none-eabi/4.7.2/../../../../arm-none-eabi/lib/thumb/libc.a(lib_a-fwalk.o)
 .debug_frame   0x0000000000002a28       0x78 /opt/local/lib/gcc/arm-none-eabi/4.7.2/../../../../arm-none-eabi/lib/thumb/libc.a(lib_a-gdtoa-gethex.o)
 .debug_frame   0x0000000000002aa0       0x3c /opt/local/lib/gcc/arm-none-eabi/4.7.2/../../../../arm-none-eabi/lib/thumb/libc.a(lib_a-gdtoa-hexnan.o)
 .debug_frame   0x0000000000002adc       0x3c /opt/local/lib/gcc/arm-none-eabi/4.7.2/../../../../arm-none-eabi/lib/thumb/libc.a(lib_a-mallocr.o)
 .debug_frame   0x0000000000002b18       0x30 /opt/local/lib/gcc/arm-none-eabi/4.7.2/../../../../arm-none-eabi/lib/thumb/libc.a(lib_a-memchr-stub.o)
 .debug_frame   0x0000000000002b48       0x30 /opt/local/lib/gcc/arm-none-eabi/4.7.2/../../../../arm-none-eabi/lib/thumb/libc.a(lib_a-memcpy-stub.o)
 .debug_frame   0x0000000000002b78       0x30 /opt/local/lib/gcc/arm-none-eabi/4.7.2/../../../../arm-none-eabi/lib/thumb/libc.a(lib_a-mlock.o)
 .debug_frame   0x0000000000002ba8      0x27c /opt/local/lib/gcc/arm-none-eabi/4.7.2/../../../../arm-none-eabi/lib/thumb/libc.a(lib_a-mprec.o)
 .debug_frame   0x0000000000002e24       0x3c /opt/local/lib/gcc/arm-none-eabi/4.7.2/../../../../arm-none-eabi/lib/thumb/libc.a(lib_a-reallocr.o)
 .debug_frame   0x0000000000002e60       0x2c /opt/local/lib/gcc/arm-none-eabi/4.7.2/../../../../arm-none-eabi/lib/thumb/libc.a(lib_a-sbrkr.o)
 .debug_frame   0x0000000000002e8c       0x68 /opt/local/lib/gcc/arm-none-eabi/4.7.2/../../../../arm-none-eabi/lib/thumb/libc.a(lib_a-svfiprintf.o)
 .debug_frame   0x0000000000002ef4       0x28 /opt/local/lib/gcc/arm-none-eabi/4.7.2/../../../../arm-none-eabi/lib/thumb/libc.a(lib_a-callocr.o)
 .debug_frame   0x0000000000002f1c       0x44 /opt/local/lib/gcc/arm-none-eabi/4.7.2/../../../../arm-none-eabi/lib/thumb/libc.a(lib_a-fclose.o)
 .debug_frame   0x0000000000002f60       0x30 /opt/local/lib/gcc/arm-none-eabi/4.7.2/../../../../arm-none-eabi/lib/thumb/libc.a(lib_a-memmove.o)
 .debug_frame   0x0000000000002f90       0x20 /opt/local/lib/gcc/arm-none-eabi/4.7.2/thumb/libgcc.a(_udivsi3.o)
 .debug_frame   0x0000000000002fb0       0x20 /opt/local/lib/gcc/arm-none-eabi/4.7.2/thumb/libgcc.a(_divsi3.o)

Cross Reference Table

Symbol                                            File
Ap_EduMenu_ExeCmd                                 Ap_EduMenu.o
                                                  main.o
Ap_EduMenu_GetCmd                                 Ap_EduMenu.o
Ap_EduMenu_ShowMenu                               Ap_EduMenu.o
Ap_GCldMenu_MoveCircleTick_1st                    Ap_GLcdMenu.o
Ap_GCldMenu_MoveCircleTick_2nd                    Ap_GLcdMenu.o
Ap_GLcdMenu_ExeCmd                                Ap_GLcdMenu.o
Ap_GLcdMenu_GetCmd                                Ap_GLcdMenu.o
Ap_GLcdMenu_ShowMenu                              Ap_GLcdMenu.o
Ap_Init                                           Ap.o
                                                  main.o
Ap_RadioMenu_ExeCmd                               Ap_RadioMenu.o
Ap_RadioMenu_GetCmd                               Ap_RadioMenu.o
Ap_RadioMenu_ShowMenu                             Ap_RadioMenu.o
Ap_Radio_AM_ChannelGet                            Ap_Radio.o
Ap_Radio_AM_ChannelSet                            Ap_Radio.o
Ap_Radio_ApiStart                                 Ap_Radio.o
Ap_Radio_BandGet                                  Ap_Radio.o
                                                  Ap_RadioMenu.o
Ap_Radio_BandSetAM                                Ap_Radio.o
                                                  Ap_RadioMenu.o
Ap_Radio_BandSetFM                                Ap_Radio.o
                                                  Ap_RadioMenu.o
Ap_Radio_ChannelGet                               Ap_Radio.o
                                                  Ap_RadioMenu.o
Ap_Radio_ChannelSet                               Ap_Radio.o
                                                  Ap_RadioMenu.o
Ap_Radio_ChannelSetFirst                          Ap_Radio.o
                                                  Ap_RadioMenu.o
Ap_Radio_ChannelSetLast                           Ap_Radio.o
Ap_Radio_ChannelSetNext                           Ap_Radio.o
                                                  Ap_RadioMenu.o
Ap_Radio_ChannelSetPrev                           Ap_Radio.o
                                                  Ap_RadioMenu.o
Ap_Radio_FM_ChannelGet                            Ap_Radio.o
Ap_Radio_FM_ChannelSet                            Ap_Radio.o
Ap_Radio_Init                                     Ap_Radio.o
Ap_Radio_Log                                      Ap_Radio.o
Ap_Radio_MuteSetOff                               Ap_Radio.o
Ap_Radio_MuteSetOn                                Ap_Radio.o
Ap_Radio_SeekFromFirst                            Ap_Radio.o
Ap_Radio_SeekFromLast                             Ap_Radio.o
Ap_Radio_SeekToFirst                              Ap_Radio.o
                                                  Ap_RadioMenu.o
Ap_Radio_SeekToLast                               Ap_Radio.o
                                                  Ap_RadioMenu.o
Ap_Radio_VolumeGet                                Ap_Radio.o
                                                  Ap_RadioMenu.o
Ap_Radio_VolumeSet                                Ap_Radio.o
Ap_Radio_VolumeSetDown                            Ap_Radio.o
                                                  Ap_RadioMenu.o
Ap_Radio_VolumeSetUp                              Ap_Radio.o
                                                  Ap_RadioMenu.o
Ap_StrCmd_AddCmd                                  Ap_StrCmd.o
Ap_StrCmd_CallBack_RxdISR                         Ap_StrCmd.o
Ap_StrCmd_ChSize                                  Ap_StrCmd.o
Ap_StrCmd_CmdCheck                                Ap_StrCmd.o
Ap_StrCmd_CmdClear                                Ap_StrCmd.o
Ap_StrCmd_CmdStr                                  Ap_StrCmd.o
Ap_StrCmd_CmdStrExe                               Ap_StrCmd.o
Ap_StrCmd_Delay                                   Ap_StrCmd.o
Ap_StrCmd_Dic_Ptr                                 Ap_StrCmd.o
Ap_StrCmd_DlyCheck                                Ap_StrCmd.o
Ap_StrCmd_Echo                                    Ap_StrCmd.o
Ap_StrCmd_EchoEnable                              Ap_StrCmd.o
Ap_StrCmd_ExeCmd                                  Ap_StrCmd.o
                                                  main.o
Ap_StrCmd_ExeFunc                                 Ap_StrCmd.o
Ap_StrCmd_GetSize                                 Ap_StrCmd.o
Ap_StrCmd_Init                                    Ap_StrCmd.o
                                                  Ap.o
Ap_StrCmd_Loop                                    Ap_StrCmd.o
Ap_StrCmd_LoopCheck                               Ap_StrCmd.o
Ap_StrCmd_Print                                   Ap_StrCmd.o
Ap_StrCmd_PrintPtr                                Ap_StrCmd.o
Ap_StrCmd_Printf                                  Ap_StrCmd.o
Ap_StrCmd_PutFunc                                 Ap_StrCmd.o
Ap_StrCmd_Putch                                   Ap_StrCmd.o
Ap_StrCmd_PutchPtr                                Ap_StrCmd.o
Ap_StrCmd_Q_Buffer                                Ap_StrCmd_Q.o
Ap_StrCmd_Q_End                                   Ap_StrCmd_Q.o
Ap_StrCmd_Q_Init                                  Ap_StrCmd_Q.o
                                                  Ap_StrCmd.o
Ap_StrCmd_Q_Pop                                   Ap_StrCmd_Q.o
                                                  Ap_StrCmd.o
Ap_StrCmd_Q_Push                                  Ap_StrCmd_Q.o
                                                  Ap_StrCmd.o
Ap_StrCmd_Q_PushReady                             Ap_StrCmd_Q.o
Ap_StrCmd_Q_SIZE                                  Ap_StrCmd_Q.o
                                                  Ap_StrCmd.o
Ap_StrCmd_Q_Size                                  Ap_StrCmd_Q.o
Ap_StrCmd_Q_Start                                 Ap_StrCmd_Q.o
Ap_StrCmd_Q_VAILD                                 Ap_StrCmd_Q.o
Ap_StrCmd_SetFunc_Putch                           Ap_StrCmd.o
Ap_StrCmd_ShowInfo                                Ap_StrCmd.o
Ap_StrCmd_ShowMenu                                Ap_StrCmd.o
Ap_StrCmd_ShowMenuHelp                            Ap_StrCmd.o
Ap_StrCmd_Size                                    Ap_StrCmd.o
Ap_StrCmd_StrCopy                                 Ap_StrCmd.o
Ap_StrCmd_StrLen                                  Ap_StrCmd.o
ByteSwap                                          usb_regs.o
                                                  usb_core.o
CTR_HP                                            usb_int.o
CTR_LP                                            usb_int.o
                                                  usb_istr.o
ClearDTOG_RX                                      usb_regs.o
                                                  usb_core.o
ClearDTOG_TX                                      usb_regs.o
                                                  usb_core.o
ClearEPDoubleBuff                                 usb_regs.o
ClearEP_CTR_RX                                    usb_regs.o
ClearEP_CTR_TX                                    usb_regs.o
ClearEP_KIND                                      usb_regs.o
Clear_Status_Out                                  usb_regs.o
                                                  usb_prop.o
Config_Descriptor                                 usb_prop.o
Data_Mul_MaxPacketSize                            usb_core.o
DecToLong                                         Lb_Printf.o
Device_Descriptor                                 usb_prop.o
Device_Info                                       usb_init.o
                                                  hw_config.o
                                                  usb_prop.o
Device_Property                                   usb_prop.o
                                                  usb_init.o
                                                  usb_core.o
                                                  usb_istr.o
Device_Table                                      usb_prop.o
                                                  usb_core.o
EP                                                usb_pwr.o
EP1_IN_Callback                                   usb_endp.o
                                                  usb_istr.o
EP3_OUT_Callback                                  usb_endp.o
                                                  usb_istr.o
EPindex                                           usb_int.o
                                                  usb_init.o
Enter_LowPowerMode                                hw_config.o
FreeUserBuffer                                    usb_regs.o
GetBTABLE                                         usb_regs.o
GetCNTR                                           usb_regs.o
GetDADDR                                          usb_regs.o
GetENDPOINT                                       usb_regs.o
GetEPAddress                                      usb_regs.o
GetEPDblBuf0Addr                                  usb_regs.o
GetEPDblBuf0Count                                 usb_regs.o
GetEPDblBuf1Addr                                  usb_regs.o
GetEPDblBuf1Count                                 usb_regs.o
GetEPDblBufDir                                    usb_regs.o
GetEPRxAddr                                       usb_regs.o
                                                  usb_sil.o
                                                  usb_core.o
GetEPRxCount                                      usb_regs.o
                                                  usb_sil.o
GetEPRxStatus                                     usb_regs.o
GetEPTxAddr                                       usb_regs.o
                                                  usb_sil.o
                                                  usb_core.o
GetEPTxCount                                      usb_regs.o
GetEPTxStatus                                     usb_regs.o
GetEPType                                         usb_regs.o
GetFNR                                            usb_regs.o
GetISTR                                           usb_regs.o
GetRxStallStatus                                  usb_regs.o
GetTxStallStatus                                  usb_regs.o
Get_SerialNum                                     hw_config.o
                                                  usb_prop.o
HW_UART_Q_SIZE                                    Hw_Uart_Q.o
HW_UART_Q_VAILD                                   Hw_Uart_Q.o
                                                  Hw_VCom.o
                                                  Hw_Uart.o
Handle_USBAsynchXfer                              hw_config.o
                                                  usb_endp.o
Hw_7Seg_Data                                      Hw_7Seg.o
Hw_7Seg_DotTbl                                    Hw_7Seg.o
Hw_7Seg_Init                                      Hw_7Seg.o
                                                  Hw.o
Hw_7Seg_Printf                                    Hw_7Seg.o
                                                  Ap_EduMenu.o
Hw_7Seg_SetDot                                    Hw_7Seg.o
Hw_7Seg_SetNumber                                 Hw_7Seg.o
Hw_7Seg_Tick                                      Hw_7Seg.o
Hw_Adc_GetConv                                    Hw_Adc.o
Hw_Adc_GetData                                    Hw_Adc.o
                                                  Hw_Cds.o
Hw_Adc_Init                                       Hw_Adc.o
                                                  Hw.o
Hw_Adc_PortInit                                   Hw_Adc.o
Hw_Adc_StartConv                                  Hw_Adc.o
Hw_CLcd_Clear                                     Hw_CLcd.o
Hw_CLcd_Delay                                     Hw_CLcd.o
Hw_CLcd_Goto                                      Hw_CLcd.o
Hw_CLcd_Init                                      Hw_CLcd.o
                                                  Hw.o
Hw_CLcd_Printf                                    Hw_CLcd.o
                                                  Ap_EduMenu.o
Hw_CLcd_WriteByte                                 Hw_CLcd.o
Hw_CLcd_WriteChar                                 Hw_CLcd.o
Hw_CLcd_WriteCmd                                  Hw_CLcd.o
Hw_CLcd_WriteStr                                  Hw_CLcd.o
Hw_Cds_GetData                                    Hw_Cds.o
                                                  Ap_EduMenu.o
Hw_Cds_Init                                       Hw_Cds.o
                                                  Hw.o
Hw_DHT11_BitIndex                                 Hw_DHT11.o
Hw_DHT11_BitTbl                                   Hw_DHT11.o
Hw_DHT11_GetHumidity                              Hw_DHT11.o
                                                  Ap_EduMenu.o
Hw_DHT11_GetTemperature                           Hw_DHT11.o
                                                  Ap_EduMenu.o
Hw_DHT11_IO_DisableISR                            Hw_DHT11.o
Hw_DHT11_IO_EnableISR                             Hw_DHT11.o
Hw_DHT11_IO_Get                                   Hw_DHT11.o
Hw_DHT11_IO_ISR                                   Hw_DHT11.o
Hw_DHT11_IO_SetHigh                               Hw_DHT11.o
Hw_DHT11_IO_SetInput                              Hw_DHT11.o
Hw_DHT11_IO_SetLow                                Hw_DHT11.o
Hw_DHT11_IO_SetOutput                             Hw_DHT11.o
Hw_DHT11_IO_Setup                                 Hw_DHT11.o
Hw_DHT11_IO_SetupISR                              Hw_DHT11.o
Hw_DHT11_Init                                     Hw_DHT11.o
                                                  Hw.o
Hw_DHT11_Log                                      Hw_DHT11.o
Hw_DHT11_Start                                    Hw_DHT11.o
Hw_DHT11_Stop                                     Hw_DHT11.o
Hw_DHT11_Tick                                     Hw_DHT11.o
Hw_DHT11_Timer_Setup                              Hw_DHT11.o
Hw_DMA_Init                                       Hw_DMA.o
Hw_DMA_SPI2_IsTransFinished                       Hw_DMA.o
                                                  Hw_N5110G.o
Hw_DMA_SPI2_Setup                                 Hw_DMA.o
                                                  Hw_N5110G.o
Hw_I2C_Init                                       Hw_I2C.o
                                                  Hw_Si47xx.o
Hw_I2C_Read                                       Hw_I2C.o
                                                  Hw_Si47xx.o
Hw_I2C_SW_EndTransmit                             Hw_I2C_SW.o
Hw_I2C_SW_IO_Setup                                Hw_I2C_SW.o
Hw_I2C_SW_Init                                    Hw_I2C_SW.o
                                                  Hw_I2C.o
Hw_I2C_SW_Read                                    Hw_I2C_SW.o
                                                  Hw_I2C.o
Hw_I2C_SW_ReadByte_Ack                            Hw_I2C_SW.o
Hw_I2C_SW_ReadByte_NoAck                          Hw_I2C_SW.o
Hw_I2C_SW_SCL_HIGH                                Hw_I2C_SW.o
Hw_I2C_SW_SCL_LOW                                 Hw_I2C_SW.o
Hw_I2C_SW_SDA                                     Hw_I2C_SW.o
Hw_I2C_SW_SDA_HIGH                                Hw_I2C_SW.o
Hw_I2C_SW_SDA_LOW                                 Hw_I2C_SW.o
Hw_I2C_SW_SetDir_SDA_Input                        Hw_I2C_SW.o
Hw_I2C_SW_SetDir_SDA_Output                       Hw_I2C_SW.o
Hw_I2C_SW_StartTransmit                           Hw_I2C_SW.o
Hw_I2C_SW_Write                                   Hw_I2C_SW.o
                                                  Hw_I2C.o
Hw_I2C_SW_WriteByte_Ack                           Hw_I2C_SW.o
Hw_I2C_SW_WriteByte_NoAck                         Hw_I2C_SW.o
Hw_I2C_Write                                      Hw_I2C.o
                                                  Hw_Si47xx.o
Hw_ISR_Init                                       Hw_ISR.o
                                                  Hw.o
Hw_ISR_SetIRQFunc                                 Hw_ISR.o
                                                  Hw_DHT11.o
                                                  Hw_Uart.o
Hw_ISR_SetIRQFuncByAddr                           Hw_ISR.o
                                                  hw_config.o
                                                  Hw_Timer.o
Hw_ISR_UART1_Handler                              Hw_Uart.o
Hw_ISR_UART2_Handler                              Hw_Uart.o
Hw_ISR_VectorTable                                Hw_ISR.o
Hw_Init                                           Hw.o
                                                  main.o
Hw_KeyPad_Data                                    Hw_KeyPad.o
Hw_KeyPad_EventFlag                               Hw_KeyPad.o
Hw_KeyPad_EventKeyNum                             Hw_KeyPad.o
Hw_KeyPad_EventList                               Hw_KeyPad.o
Hw_KeyPad_GetEventKeyData                         Hw_KeyPad.o
                                                  Ap_EduMenu.o
Hw_KeyPad_GetEventKeyNum                          Hw_KeyPad.o
                                                  Ap_EduMenu.o
Hw_KeyPad_GetPressedCnt                           Hw_KeyPad.o
                                                  Ap_EduMenu.o
Hw_KeyPad_GetPressedNum                           Hw_KeyPad.o
Hw_KeyPad_GetRepeatCnt                            Hw_KeyPad.o
                                                  Ap_EduMenu.o
Hw_KeyPad_Init                                    Hw_KeyPad.o
                                                  Hw.o
Hw_KeyPad_Log                                     Hw_KeyPad.o
Hw_KeyPad_PressedCount                            Hw_KeyPad.o
Hw_KeyPad_PressedList                             Hw_KeyPad.o
Hw_KeyPad_ReadCode                                Hw_KeyPad.o
Hw_KeyPad_Scan                                    Hw_KeyPad.o
Hw_KeyPad_SetEventFunc                            Hw_KeyPad.o
                                                  Ap_EduMenu.o
Hw_KeyPad_StateTick                               Hw_KeyPad.o
Hw_KeyPad_Tick                                    Hw_KeyPad.o
Hw_KeyPad_WaitForEvent                            Hw_KeyPad.o
                                                  Ap_EduMenu.o
Hw_Led_Init                                       Hw_Led.o
                                                  Hw.o
Hw_Led_Off                                        Hw_Led.o
Hw_Led_On                                         Hw_Led.o
Hw_Led_Toggle                                     Hw_Led.o
                                                  Ap_EduMenu.o
                                                  main.o
Hw_Led_Wait                                       Hw_Led.o
Hw_N5100G_FrameTick                               Hw_N5110G.o
Hw_N5110G_Clear                                   Hw_N5110G.o
                                                  Ap_GLcdMenu.o
Hw_N5110G_ClrPixel                                Hw_N5110G.o
Hw_N5110G_DrawCircle                              Hw_N5110G.o
                                                  Ap_GLcdMenu.o
Hw_N5110G_DrawClear                               Hw_N5110G.o
Hw_N5110G_DrawClearRect                           Hw_N5110G.o
                                                  Ap_GLcdMenu.o
Hw_N5110G_DrawPrint                               Hw_N5110G.o
                                                  Ap_GLcdMenu.o
Hw_N5110G_DrawRequest                             Hw_N5110G.o
                                                  Ap_GLcdMenu.o
Hw_N5110G_Font6_8                                 Hw_N5110G.o
Hw_N5110G_Frame_DrawReq                           Hw_N5110G.o
Hw_N5110G_Frame_Index                             Hw_N5110G.o
Hw_N5110G_GetPixel                                Hw_N5110G.o
Hw_N5110G_Goto                                    Hw_N5110G.o
Hw_N5110G_Init                                    Hw_N5110G.o
Hw_N5110G_Print                                   Hw_N5110G.o
Hw_N5110G_Reset                                   Hw_N5110G.o
Hw_N5110G_RxFrameBuf                              Hw_N5110G.o
Hw_N5110G_SetPixel                                Hw_N5110G.o
Hw_N5110G_TxFrameBuf                              Hw_N5110G.o
Hw_N5110G_WriteByte                               Hw_N5110G.o
Hw_N5110G_WriteChar                               Hw_N5110G.o
Hw_N5110G_WriteCmd                                Hw_N5110G.o
Hw_N5110G_WriteStr                                Hw_N5110G.o
Hw_N5110G_XorPixel                                Hw_N5110G.o
Hw_PLL_Init                                       Hw_PLL.o
                                                  Hw.o
Hw_SPI_Ch1_Init                                   Hw_SPI.o
Hw_SPI_Ch2_Init                                   Hw_SPI.o
Hw_SPI_Disable                                    Hw_SPI.o
Hw_SPI_Enable                                     Hw_SPI.o
Hw_SPI_Init                                       Hw_SPI.o
                                                  Hw_N5110G.o
Hw_SPI_StartDMA                                   Hw_SPI.o
                                                  Hw_N5110G.o
Hw_SPI_StopDMA                                    Hw_SPI.o
Hw_SPI_Write16Bit                                 Hw_SPI.o
Hw_SPI_Write8Bit                                  Hw_SPI.o
                                                  Hw_N5110G.o
Hw_Si47xx_AM_Config                               Hw_Si47xx.o
                                                  Ap_Radio.o
Hw_Si47xx_AM_SEEK_START                           Hw_Si47xx.o
                                                  Ap_Radio.o
Hw_Si47xx_AM_TUNE_FREQ                            Hw_Si47xx.o
                                                  Ap_Radio.o
Hw_Si47xx_AM_TUNE_STATUS                          Hw_Si47xx.o
                                                  Ap_Radio.o
Hw_Si47xx_CommandResp                             Hw_Si47xx.o
Hw_Si47xx_FM_Config                               Hw_Si47xx.o
                                                  Ap_Radio.o
Hw_Si47xx_FM_SEEK_START                           Hw_Si47xx.o
                                                  Ap_Radio.o
Hw_Si47xx_FM_TUNE_FREQ                            Hw_Si47xx.o
                                                  Ap_Radio.o
Hw_Si47xx_FM_TUNE_STATUS                          Hw_Si47xx.o
                                                  Ap_Radio.o
Hw_Si47xx_GET_INT_STATUS                          Hw_Si47xx.o
Hw_Si47xx_GET_PROPERTY                            Hw_Si47xx.o
                                                  Ap_Radio.o
Hw_Si47xx_Init                                    Hw_Si47xx.o
                                                  Ap_Radio.o
Hw_Si47xx_LastResp                                Hw_Si47xx.o
Hw_Si47xx_POWER_UP                                Hw_Si47xx.o
Hw_Si47xx_ReadResp                                Hw_Si47xx.o
                                                  Ap_Radio.o
Hw_Si47xx_ReceiveResponse                         Hw_Si47xx.o
Hw_Si47xx_Reset                                   Hw_Si47xx.o
Hw_Si47xx_SET_PROPERTY                            Hw_Si47xx.o
                                                  Ap_Radio.o
Hw_Si47xx_SendCommand                             Hw_Si47xx.o
Hw_Si47xx_WaitForCTS                              Hw_Si47xx.o
Hw_Si47xx_WaitForSTC                              Hw_Si47xx.o
                                                  Ap_Radio.o
Hw_StartUp_Init                                   Hw_StartUp.o
Hw_Timer_Delay_ms                                 Hw_Timer.o
                                                  Hw_N5110G.o
                                                  Hw_Si47xx.o
                                                  Ap_EduMenu.o
Hw_Timer_Get_CountValue                           Hw_Timer.o
                                                  Hw_KeyPad.o
                                                  Hw_Si47xx.o
Hw_Timer_Get_Handle                               Hw_Timer.o
Hw_Timer_ISR                                      Hw_Timer.o
Hw_Timer_Init                                     Hw_Timer.o
                                                  Hw.o
Hw_Timer_Reset                                    Hw_Timer.o
                                                  Hw_DHT11.o
Hw_Timer_Set                                      Hw_Timer.o
                                                  Hw_DHT11.o
                                                  Hw_7Seg.o
                                                  Hw_KeyPad.o
                                                  Hw_N5110G.o
                                                  Ap_GLcdMenu.o
                                                  main.o
Hw_Timer_Setup                                    Hw_Timer.o
Hw_Timer_SetupISR                                 Hw_Timer.o
Hw_Timer_Start                                    Hw_Timer.o
                                                  Hw_DHT11.o
                                                  Hw_7Seg.o
                                                  Hw_KeyPad.o
                                                  Hw_N5110G.o
                                                  Ap_GLcdMenu.o
                                                  main.o
Hw_Timer_Stop                                     Hw_Timer.o
                                                  Hw_DHT11.o
                                                  Ap_GLcdMenu.o
Hw_Timer_Tick                                     Hw_Timer.o
Hw_Timer_TimeGetElapse                            Hw_Timer.o
Hw_Timer_TimeStart                                Hw_Timer.o
Hw_Uart_Ch                                        Hw_Uart.o
Hw_Uart_Getch                                     Hw_Uart.o
Hw_Uart_GetchNoWait                               Hw_Uart.o
                                                  Ap_EduMenu.o
Hw_Uart_Init                                      Hw_Uart.o
                                                  Hw.o
Hw_Uart_Open                                      Hw_Uart.o
Hw_Uart_Open_COM1                                 Hw_Uart.o
Hw_Uart_Open_COM2                                 Hw_Uart.o
Hw_Uart_PrintEx                                   Hw_Uart.o
Hw_Uart_Printf                                    Hw_Uart.o
                                                  Ap_EduMenu.o
Hw_Uart_Putch                                     Hw_Uart.o
                                                  Ap_StrCmd.o
Hw_Uart_Q_Buffer                                  Hw_Uart_Q.o
Hw_Uart_Q_End                                     Hw_Uart_Q.o
Hw_Uart_Q_Init                                    Hw_Uart_Q.o
                                                  Hw_Uart.o
Hw_Uart_Q_Pop                                     Hw_Uart_Q.o
                                                  Hw_VCom.o
                                                  Hw_Uart.o
Hw_Uart_Q_Push                                    Hw_Uart_Q.o
                                                  hw_config.o
                                                  Hw_Uart.o
Hw_Uart_Q_PushReady                               Hw_Uart_Q.o
Hw_Uart_Q_Size                                    Hw_Uart_Q.o
Hw_Uart_Q_Start                                   Hw_Uart_Q.o
Hw_Uart_SetReceiveFuncISR                         Hw_Uart.o
                                                  Ap_StrCmd.o
Hw_VBus_AddrTbl                                   Hw_VBus.o
Hw_VBus_ClrBit                                    Hw_VBus.o
                                                  Hw_CLcd.o
                                                  Hw_Led.o
Hw_VBus_GetData                                   Hw_VBus.o
Hw_VBus_Init                                      Hw_VBus.o
                                                  Hw.o
Hw_VBus_ReadData                                  Hw_VBus.o
                                                  Hw_KeyPad.o
Hw_VBus_SetAddress                                Hw_VBus.o
Hw_VBus_SetBit                                    Hw_VBus.o
                                                  Hw_CLcd.o
                                                  Hw_Led.o
Hw_VBus_SetData                                   Hw_VBus.o
Hw_VBus_SetDataPortInput                          Hw_VBus.o
Hw_VBus_SetDataPortOutput                         Hw_VBus.o
Hw_VBus_SetIdle                                   Hw_VBus.o
Hw_VBus_TglBit                                    Hw_VBus.o
                                                  Hw_Led.o
Hw_VBus_WriteData                                 Hw_VBus.o
                                                  Hw_CLcd.o
                                                  Hw_7Seg.o
Hw_VCom_Getch                                     Hw_VCom.o
Hw_VCom_Init                                      Hw_VCom.o
                                                  Hw.o
Hw_VCom_Putch                                     Hw_VCom.o
Hw_Wait                                           Hw.o
                                                  Hw_Si47xx.o
Hw_Wait_Usec                                      Hw.o
                                                  Hw_CLcd.o
                                                  Hw_I2C_SW.o
In0_Process                                       usb_core.o
                                                  usb_int.o
KeyPad_DownKeyEvent                               Ap_EduMenu.o
KeyPad_UpKeyEvent                                 Ap_EduMenu.o
LED_Tick                                          main.o
Lb_printf                                         Lb_Printf.o
                                                  Ap_EduMenu.o
                                                  Ap_GLcdMenu.o
                                                  Ap_RadioMenu.o
Lb_sprintf                                        Lb_Printf.o
                                                  Hw_Uart.o
                                                  Ap_StrCmd.o
Lb_vsprintf                                       Lb_Printf.o
                                                  Hw_CLcd.o
                                                  Hw_7Seg.o
                                                  Hw_N5110G.o
                                                  Ap_StrCmd.o
Leave_LowPowerMode                                hw_config.o
                                                  usb_pwr.o
NOP_Process                                       usb_core.o
                                                  usb_prop.o
                                                  usb_istr.o
Out0_Process                                      usb_core.o
                                                  usb_int.o
PMAToUserBufferCopy                               usb_mem.o
                                                  usb_sil.o
                                                  usb_core.o
Post0_Process                                     usb_core.o
PowerOff                                          usb_pwr.o
PowerOn                                           usb_pwr.o
                                                  usb_prop.o
Request                                           usb_prop.o
Resume                                            usb_pwr.o
                                                  usb_istr.o
ResumeS                                           usb_pwr.o
Resume_Init                                       usb_pwr.o
SOF_Callback                                      usb_endp.o
                                                  usb_istr.o
SaveRState                                        usb_int.o
                                                  usb_core.o
SaveState                                         usb_init.o
SaveTState                                        usb_int.o
                                                  usb_core.o
Seg_Count                                         Ap_EduMenu.o
SetBTABLE                                         usb_regs.o
                                                  usb_prop.o
SetCNTR                                           usb_regs.o
SetDADDR                                          usb_regs.o
SetDeviceAddress                                  usb_core.o
                                                  usb_prop.o
SetDouBleBuffEPStall                              usb_regs.o
SetENDPOINT                                       usb_regs.o
SetEPAddress                                      usb_regs.o
SetEPCountRxReg                                   usb_regs.o
SetEPDblBuf0Addr                                  usb_regs.o
SetEPDblBuf0Count                                 usb_regs.o
SetEPDblBuf1Addr                                  usb_regs.o
SetEPDblBuf1Count                                 usb_regs.o
SetEPDblBuffAddr                                  usb_regs.o
SetEPDblBuffCount                                 usb_regs.o
SetEPDoubleBuff                                   usb_regs.o
SetEPRxAddr                                       usb_regs.o
                                                  usb_prop.o
SetEPRxCount                                      usb_regs.o
                                                  usb_core.o
                                                  usb_prop.o
SetEPRxStatus                                     usb_regs.o
                                                  usb_prop.o
SetEPRxValid                                      usb_regs.o
                                                  usb_prop.o
                                                  usb_endp.o
SetEPTxAddr                                       usb_regs.o
                                                  usb_prop.o
SetEPTxCount                                      usb_regs.o
                                                  usb_sil.o
                                                  usb_core.o
                                                  hw_config.o
                                                  usb_endp.o
SetEPTxStatus                                     usb_regs.o
                                                  usb_core.o
                                                  usb_prop.o
SetEPTxValid                                      usb_regs.o
                                                  hw_config.o
                                                  usb_endp.o
SetEPType                                         usb_regs.o
                                                  usb_prop.o
SetEP_KIND                                        usb_regs.o
SetISTR                                           usb_regs.o
Set_Status_Out                                    usb_regs.o
Set_System                                        hw_config.o
                                                  Hw_VCom.o
Set_USBClock                                      hw_config.o
                                                  Hw_VCom.o
Setup0_Process                                    usb_core.o
                                                  usb_int.o
Standard_ClearFeature                             usb_core.o
Standard_GetConfiguration                         usb_core.o
Standard_GetDescriptorData                        usb_core.o
                                                  usb_prop.o
Standard_GetInterface                             usb_core.o
Standard_GetStatus                                usb_core.o
Standard_SetConfiguration                         usb_core.o
Standard_SetDeviceFeature                         usb_core.o
Standard_SetEndPointFeature                       usb_core.o
Standard_SetInterface                             usb_core.o
StatusInfo                                        usb_core.o
StrCmp                                            Lb_Printf.o
StrNCmp                                           Lb_Printf.o
StrPrintBufIndex                                  Lb_Printf.o
StrPrintMode                                      Lb_Printf.o
String_Descriptor                                 usb_prop.o
Suspend                                           usb_pwr.o
                                                  usb_istr.o
TimerDebug_Tick                                   Ap_RadioMenu.o
ToWord                                            usb_regs.o
ToggleDTOG_RX                                     usb_regs.o
ToggleDTOG_TX                                     usb_regs.o
USART_Rx_Buffer                                   hw_config.o
                                                  usb_endp.o
USART_Rx_length                                   hw_config.o
                                                  usb_endp.o
USART_Rx_ptr_in                                   hw_config.o
USART_Rx_ptr_out                                  hw_config.o
                                                  usb_endp.o
USART_To_USB_Send_Data                            hw_config.o
USBWakeUp_IRQHandler                              hw_config.o
USB_Cable_Config                                  hw_config.o
                                                  usb_pwr.o
USB_Init                                          usb_init.o
                                                  Hw_VCom.o
USB_Interrupts_Config                             hw_config.o
                                                  Hw_VCom.o
USB_Istr                                          usb_istr.o
                                                  hw_config.o
USB_LP_IRQHandler                                 hw_config.o
USB_Rx_Buffer                                     usb_endp.o
USB_SIL_Init                                      usb_sil.o
                                                  usb_prop.o
USB_SIL_Read                                      usb_sil.o
                                                  usb_endp.o
USB_SIL_Write                                     usb_sil.o
USB_Send_Data                                     hw_config.o
                                                  Hw_VCom.o
USB_To_USART_Send_Data                            hw_config.o
                                                  usb_endp.o
USB_Tx_State                                      hw_config.o
                                                  usb_endp.o
UserToPMABufferCopy                               usb_mem.o
                                                  usb_sil.o
                                                  usb_core.o
                                                  hw_config.o
                                                  usb_endp.o
User_Standard_Requests                            usb_prop.o
                                                  usb_init.o
Virtual_Com_Port_ConfigDescriptor                 usb_desc.o
                                                  usb_prop.o
Virtual_Com_Port_Data_Setup                       usb_prop.o
Virtual_Com_Port_DeviceDescriptor                 usb_desc.o
                                                  usb_prop.o
Virtual_Com_Port_GetConfigDescriptor              usb_prop.o
Virtual_Com_Port_GetDeviceDescriptor              usb_prop.o
Virtual_Com_Port_GetLineCoding                    usb_prop.o
Virtual_Com_Port_GetStringDescriptor              usb_prop.o
Virtual_Com_Port_Get_Interface_Setting            usb_prop.o
Virtual_Com_Port_NoData_Setup                     usb_prop.o
Virtual_Com_Port_Reset                            usb_prop.o
Virtual_Com_Port_SetConfiguration                 usb_prop.o
Virtual_Com_Port_SetDeviceAddress                 usb_prop.o
Virtual_Com_Port_SetLineCoding                    usb_prop.o
Virtual_Com_Port_Status_In                        usb_prop.o
Virtual_Com_Port_Status_Out                       usb_prop.o
Virtual_Com_Port_StringLangID                     usb_desc.o
                                                  usb_prop.o
Virtual_Com_Port_StringProduct                    usb_desc.o
                                                  usb_prop.o
Virtual_Com_Port_StringSerial                     usb_desc.o
                                                  hw_config.o
                                                  usb_prop.o
Virtual_Com_Port_StringVendor                     usb_desc.o
                                                  usb_prop.o
Virtual_Com_Port_init                             usb_prop.o
_Balloc                                           /opt/local/lib/gcc/arm-none-eabi/4.7.2/../../../../arm-none-eabi/lib/thumb/libc.a(lib_a-mprec.o)
                                                  /opt/local/lib/gcc/arm-none-eabi/4.7.2/../../../../arm-none-eabi/lib/thumb/libc.a(lib_a-gdtoa-gethex.o)
                                                  /opt/local/lib/gcc/arm-none-eabi/4.7.2/../../../../arm-none-eabi/lib/thumb/libc.a(lib_a-dtoa.o)
                                                  /opt/local/lib/gcc/arm-none-eabi/4.7.2/../../../../arm-none-eabi/lib/thumb/libc.a(lib_a-strtod.o)
_Bfree                                            /opt/local/lib/gcc/arm-none-eabi/4.7.2/../../../../arm-none-eabi/lib/thumb/libc.a(lib_a-mprec.o)
                                                  /opt/local/lib/gcc/arm-none-eabi/4.7.2/../../../../arm-none-eabi/lib/thumb/libc.a(lib_a-gdtoa-gethex.o)
                                                  /opt/local/lib/gcc/arm-none-eabi/4.7.2/../../../../arm-none-eabi/lib/thumb/libc.a(lib_a-dtoa.o)
                                                  /opt/local/lib/gcc/arm-none-eabi/4.7.2/../../../../arm-none-eabi/lib/thumb/libc.a(lib_a-strtod.o)
_PathLocale                                       /opt/local/lib/gcc/arm-none-eabi/4.7.2/../../../../arm-none-eabi/lib/thumb/libc.a(lib_a-locale.o)
__WFI                                             hw_config.o
                                                  usb_pwr.o
__adddf3                                          /opt/local/lib/gcc/arm-none-eabi/4.7.2/thumb/libgcc.a(_arm_addsubdf3.o)
__aeabi_cdcmpeq                                   /opt/local/lib/gcc/arm-none-eabi/4.7.2/thumb/libgcc.a(_arm_cmpdf2.o)
__aeabi_cdcmple                                   /opt/local/lib/gcc/arm-none-eabi/4.7.2/thumb/libgcc.a(_arm_cmpdf2.o)
__aeabi_cdrcmple                                  /opt/local/lib/gcc/arm-none-eabi/4.7.2/thumb/libgcc.a(_arm_cmpdf2.o)
__aeabi_d2f                                       /opt/local/lib/gcc/arm-none-eabi/4.7.2/thumb/libgcc.a(_arm_truncdfsf2.o)
                                                  /opt/local/lib/gcc/arm-none-eabi/4.7.2/../../../../arm-none-eabi/lib/thumb/libc.a(lib_a-strtod.o)
                                                  /opt/local/lib/gcc/arm-none-eabi/4.7.2/../../../../arm-none-eabi/lib/thumb/libc.a(lib_a-svfscanf.o)
__aeabi_d2iz                                      /opt/local/lib/gcc/arm-none-eabi/4.7.2/thumb/libgcc.a(_arm_fixdfsi.o)
                                                  /opt/local/lib/gcc/arm-none-eabi/4.7.2/../../../../arm-none-eabi/lib/thumb/libc.a(lib_a-dtoa.o)
                                                  /opt/local/lib/gcc/arm-none-eabi/4.7.2/../../../../arm-none-eabi/lib/thumb/libc.a(lib_a-strtod.o)
__aeabi_d2uiz                                     /opt/local/lib/gcc/arm-none-eabi/4.7.2/thumb/libgcc.a(_arm_fixunsdfsi.o)
                                                  /opt/local/lib/gcc/arm-none-eabi/4.7.2/../../../../arm-none-eabi/lib/thumb/libc.a(lib_a-strtod.o)
__aeabi_dadd                                      /opt/local/lib/gcc/arm-none-eabi/4.7.2/thumb/libgcc.a(_arm_addsubdf3.o)
                                                  /opt/local/lib/gcc/arm-none-eabi/4.7.2/../../../../arm-none-eabi/lib/thumb/libc.a(lib_a-dtoa.o)
                                                  /opt/local/lib/gcc/arm-none-eabi/4.7.2/../../../../arm-none-eabi/lib/thumb/libc.a(lib_a-strtod.o)
__aeabi_dcmpeq                                    /opt/local/lib/gcc/arm-none-eabi/4.7.2/thumb/libgcc.a(_arm_cmpdf2.o)
                                                  /opt/local/lib/gcc/arm-none-eabi/4.7.2/../../../../arm-none-eabi/lib/thumb/libc.a(lib_a-dtoa.o)
                                                  /opt/local/lib/gcc/arm-none-eabi/4.7.2/../../../../arm-none-eabi/lib/thumb/libc.a(lib_a-svfprintf.o)
                                                  /opt/local/lib/gcc/arm-none-eabi/4.7.2/../../../../arm-none-eabi/lib/thumb/libc.a(lib_a-strtod.o)
__aeabi_dcmpge                                    /opt/local/lib/gcc/arm-none-eabi/4.7.2/thumb/libgcc.a(_arm_cmpdf2.o)
                                                  /opt/local/lib/gcc/arm-none-eabi/4.7.2/../../../../arm-none-eabi/lib/thumb/libc.a(lib_a-dtoa.o)
__aeabi_dcmpgt                                    /opt/local/lib/gcc/arm-none-eabi/4.7.2/thumb/libgcc.a(_arm_cmpdf2.o)
                                                  /opt/local/lib/gcc/arm-none-eabi/4.7.2/../../../../arm-none-eabi/lib/thumb/libc.a(lib_a-dtoa.o)
                                                  /opt/local/lib/gcc/arm-none-eabi/4.7.2/../../../../arm-none-eabi/lib/thumb/libc.a(lib_a-strtod.o)
__aeabi_dcmple                                    /opt/local/lib/gcc/arm-none-eabi/4.7.2/thumb/libgcc.a(_arm_cmpdf2.o)
                                                  /opt/local/lib/gcc/arm-none-eabi/4.7.2/../../../../arm-none-eabi/lib/thumb/libc.a(lib_a-strtod.o)
__aeabi_dcmplt                                    /opt/local/lib/gcc/arm-none-eabi/4.7.2/thumb/libgcc.a(_arm_cmpdf2.o)
                                                  /opt/local/lib/gcc/arm-none-eabi/4.7.2/../../../../arm-none-eabi/lib/thumb/libc.a(lib_a-dtoa.o)
                                                  /opt/local/lib/gcc/arm-none-eabi/4.7.2/../../../../arm-none-eabi/lib/thumb/libc.a(lib_a-svfprintf.o)
                                                  /opt/local/lib/gcc/arm-none-eabi/4.7.2/../../../../arm-none-eabi/lib/thumb/libc.a(lib_a-strtod.o)
__aeabi_ddiv                                      /opt/local/lib/gcc/arm-none-eabi/4.7.2/thumb/libgcc.a(_arm_muldivdf3.o)
                                                  /opt/local/lib/gcc/arm-none-eabi/4.7.2/../../../../arm-none-eabi/lib/thumb/libc.a(lib_a-mprec.o)
                                                  /opt/local/lib/gcc/arm-none-eabi/4.7.2/../../../../arm-none-eabi/lib/thumb/libc.a(lib_a-dtoa.o)
                                                  /opt/local/lib/gcc/arm-none-eabi/4.7.2/../../../../arm-none-eabi/lib/thumb/libc.a(lib_a-strtod.o)
__aeabi_dmul                                      /opt/local/lib/gcc/arm-none-eabi/4.7.2/thumb/libgcc.a(_arm_muldivdf3.o)
                                                  /opt/local/lib/gcc/arm-none-eabi/4.7.2/../../../../arm-none-eabi/lib/thumb/libc.a(lib_a-mprec.o)
                                                  /opt/local/lib/gcc/arm-none-eabi/4.7.2/../../../../arm-none-eabi/lib/thumb/libc.a(lib_a-dtoa.o)
                                                  /opt/local/lib/gcc/arm-none-eabi/4.7.2/../../../../arm-none-eabi/lib/thumb/libc.a(lib_a-strtod.o)
__aeabi_drsub                                     /opt/local/lib/gcc/arm-none-eabi/4.7.2/thumb/libgcc.a(_arm_addsubdf3.o)
__aeabi_dsub                                      /opt/local/lib/gcc/arm-none-eabi/4.7.2/thumb/libgcc.a(_arm_addsubdf3.o)
                                                  /opt/local/lib/gcc/arm-none-eabi/4.7.2/../../../../arm-none-eabi/lib/thumb/libc.a(lib_a-dtoa.o)
                                                  /opt/local/lib/gcc/arm-none-eabi/4.7.2/../../../../arm-none-eabi/lib/thumb/libc.a(lib_a-strtod.o)
__aeabi_f2d                                       /opt/local/lib/gcc/arm-none-eabi/4.7.2/thumb/libgcc.a(_arm_addsubdf3.o)
__aeabi_i2d                                       /opt/local/lib/gcc/arm-none-eabi/4.7.2/thumb/libgcc.a(_arm_addsubdf3.o)
                                                  /opt/local/lib/gcc/arm-none-eabi/4.7.2/../../../../arm-none-eabi/lib/thumb/libc.a(lib_a-dtoa.o)
                                                  /opt/local/lib/gcc/arm-none-eabi/4.7.2/../../../../arm-none-eabi/lib/thumb/libc.a(lib_a-strtod.o)
__aeabi_idiv                                      /opt/local/lib/gcc/arm-none-eabi/4.7.2/thumb/libgcc.a(_divsi3.o)
                                                  /opt/local/lib/gcc/arm-none-eabi/4.7.2/../../../../arm-none-eabi/lib/thumb/libc.a(lib_a-mprec.o)
                                                  /opt/local/lib/gcc/arm-none-eabi/4.7.2/../../../../arm-none-eabi/lib/thumb/libc.a(lib_a-svfprintf.o)
__aeabi_idiv0                                     /opt/local/lib/gcc/arm-none-eabi/4.7.2/thumb/libgcc.a(_dvmd_tls.o)
                                                  /opt/local/lib/gcc/arm-none-eabi/4.7.2/thumb/libgcc.a(_divsi3.o)
                                                  /opt/local/lib/gcc/arm-none-eabi/4.7.2/thumb/libgcc.a(_udivsi3.o)
__aeabi_idivmod                                   /opt/local/lib/gcc/arm-none-eabi/4.7.2/thumb/libgcc.a(_divsi3.o)
                                                  /opt/local/lib/gcc/arm-none-eabi/4.7.2/../../../../arm-none-eabi/lib/thumb/libc.a(lib_a-svfprintf.o)
__aeabi_l2d                                       /opt/local/lib/gcc/arm-none-eabi/4.7.2/thumb/libgcc.a(_arm_addsubdf3.o)
__aeabi_ldiv0                                     /opt/local/lib/gcc/arm-none-eabi/4.7.2/thumb/libgcc.a(_dvmd_tls.o)
__aeabi_ui2d                                      /opt/local/lib/gcc/arm-none-eabi/4.7.2/thumb/libgcc.a(_arm_addsubdf3.o)
                                                  /opt/local/lib/gcc/arm-none-eabi/4.7.2/../../../../arm-none-eabi/lib/thumb/libc.a(lib_a-dtoa.o)
                                                  /opt/local/lib/gcc/arm-none-eabi/4.7.2/../../../../arm-none-eabi/lib/thumb/libc.a(lib_a-strtod.o)
__aeabi_uidiv                                     /opt/local/lib/gcc/arm-none-eabi/4.7.2/thumb/libgcc.a(_udivsi3.o)
                                                  /opt/local/lib/gcc/arm-none-eabi/4.7.2/../../../../arm-none-eabi/lib/thumb/libc.a(lib_a-svfiprintf.o)
                                                  /opt/local/lib/gcc/arm-none-eabi/4.7.2/../../../../arm-none-eabi/lib/thumb/libc.a(lib_a-dtoa.o)
                                                  /opt/local/lib/gcc/arm-none-eabi/4.7.2/../../../../arm-none-eabi/lib/thumb/libc.a(lib_a-svfprintf.o)
                                                  /opt/local/lib/gcc/arm-none-eabi/4.7.2/../../../../arm-none-eabi/lib/thumb/libc.a(lib_a-svfiscanf.o)
                                                  /opt/local/lib/gcc/arm-none-eabi/4.7.2/../../../../arm-none-eabi/lib/thumb/libc.a(lib_a-strtoul.o)
                                                  /opt/local/lib/gcc/arm-none-eabi/4.7.2/../../../../arm-none-eabi/lib/thumb/libc.a(lib_a-strtol.o)
__aeabi_uidivmod                                  /opt/local/lib/gcc/arm-none-eabi/4.7.2/thumb/libgcc.a(_udivsi3.o)
                                                  /opt/local/lib/gcc/arm-none-eabi/4.7.2/../../../../arm-none-eabi/lib/thumb/libc.a(lib_a-svfiprintf.o)
                                                  /opt/local/lib/gcc/arm-none-eabi/4.7.2/../../../../arm-none-eabi/lib/thumb/libc.a(lib_a-svfprintf.o)
                                                  /opt/local/lib/gcc/arm-none-eabi/4.7.2/../../../../arm-none-eabi/lib/thumb/libc.a(lib_a-strtoul.o)
                                                  /opt/local/lib/gcc/arm-none-eabi/4.7.2/../../../../arm-none-eabi/lib/thumb/libc.a(lib_a-strtol.o)
__aeabi_ul2d                                      /opt/local/lib/gcc/arm-none-eabi/4.7.2/thumb/libgcc.a(_arm_addsubdf3.o)
__any_on                                          /opt/local/lib/gcc/arm-none-eabi/4.7.2/../../../../arm-none-eabi/lib/thumb/libc.a(lib_a-mprec.o)
                                                  /opt/local/lib/gcc/arm-none-eabi/4.7.2/../../../../arm-none-eabi/lib/thumb/libc.a(lib_a-gdtoa-gethex.o)
__ascii_mbtowc                                    /opt/local/lib/gcc/arm-none-eabi/4.7.2/../../../../arm-none-eabi/lib/thumb/libc.a(lib_a-mbtowc_r.o)
__b2d                                             /opt/local/lib/gcc/arm-none-eabi/4.7.2/../../../../arm-none-eabi/lib/thumb/libc.a(lib_a-mprec.o)
__cmpdf2                                          /opt/local/lib/gcc/arm-none-eabi/4.7.2/thumb/libgcc.a(_arm_cmpdf2.o)
__copybits                                        /opt/local/lib/gcc/arm-none-eabi/4.7.2/../../../../arm-none-eabi/lib/thumb/libc.a(lib_a-mprec.o)
                                                  /opt/local/lib/gcc/arm-none-eabi/4.7.2/../../../../arm-none-eabi/lib/thumb/libc.a(lib_a-strtod.o)
__ctype_ptr__                                     /opt/local/lib/gcc/arm-none-eabi/4.7.2/../../../../arm-none-eabi/lib/thumb/libc.a(lib_a-ctype_.o)
                                                  /opt/local/lib/gcc/arm-none-eabi/4.7.2/../../../../arm-none-eabi/lib/thumb/libc.a(lib_a-svfiscanf.o)
                                                  /opt/local/lib/gcc/arm-none-eabi/4.7.2/../../../../arm-none-eabi/lib/thumb/libc.a(lib_a-strtoul.o)
                                                  /opt/local/lib/gcc/arm-none-eabi/4.7.2/../../../../arm-none-eabi/lib/thumb/libc.a(lib_a-strtol.o)
                                                  /opt/local/lib/gcc/arm-none-eabi/4.7.2/../../../../arm-none-eabi/lib/thumb/libc.a(lib_a-iswspace.o)
                                                  /opt/local/lib/gcc/arm-none-eabi/4.7.2/../../../../arm-none-eabi/lib/thumb/libc.a(lib_a-svfscanf.o)
                                                  Ap_StrCmd.o
__d2b                                             /opt/local/lib/gcc/arm-none-eabi/4.7.2/../../../../arm-none-eabi/lib/thumb/libc.a(lib_a-mprec.o)
                                                  /opt/local/lib/gcc/arm-none-eabi/4.7.2/../../../../arm-none-eabi/lib/thumb/libc.a(lib_a-dtoa.o)
                                                  /opt/local/lib/gcc/arm-none-eabi/4.7.2/../../../../arm-none-eabi/lib/thumb/libc.a(lib_a-strtod.o)
__divdf3                                          /opt/local/lib/gcc/arm-none-eabi/4.7.2/thumb/libgcc.a(_arm_muldivdf3.o)
__divsi3                                          /opt/local/lib/gcc/arm-none-eabi/4.7.2/thumb/libgcc.a(_divsi3.o)
__eqdf2                                           /opt/local/lib/gcc/arm-none-eabi/4.7.2/thumb/libgcc.a(_arm_cmpdf2.o)
__errno                                           /opt/local/lib/gcc/arm-none-eabi/4.7.2/../../../../arm-none-eabi/lib/thumb/libc.a(lib_a-errno.o)
                                                  /opt/local/lib/gcc/arm-none-eabi/4.7.2/../../../../arm-none-eabi/lib/thumb/libc.a(lib_a-syscalls.o)
__extendsfdf2                                     /opt/local/lib/gcc/arm-none-eabi/4.7.2/thumb/libgcc.a(_arm_addsubdf3.o)
__fixdfsi                                         /opt/local/lib/gcc/arm-none-eabi/4.7.2/thumb/libgcc.a(_arm_fixdfsi.o)
__fixunsdfsi                                      /opt/local/lib/gcc/arm-none-eabi/4.7.2/thumb/libgcc.a(_arm_fixunsdfsi.o)
__floatdidf                                       /opt/local/lib/gcc/arm-none-eabi/4.7.2/thumb/libgcc.a(_arm_addsubdf3.o)
__floatsidf                                       /opt/local/lib/gcc/arm-none-eabi/4.7.2/thumb/libgcc.a(_arm_addsubdf3.o)
__floatundidf                                     /opt/local/lib/gcc/arm-none-eabi/4.7.2/thumb/libgcc.a(_arm_addsubdf3.o)
__floatunsidf                                     /opt/local/lib/gcc/arm-none-eabi/4.7.2/thumb/libgcc.a(_arm_addsubdf3.o)
__fp_lock_all                                     /opt/local/lib/gcc/arm-none-eabi/4.7.2/../../../../arm-none-eabi/lib/thumb/libc.a(lib_a-findfp.o)
__fp_unlock_all                                   /opt/local/lib/gcc/arm-none-eabi/4.7.2/../../../../arm-none-eabi/lib/thumb/libc.a(lib_a-findfp.o)
__fpclassifyd                                     /opt/local/lib/gcc/arm-none-eabi/4.7.2/../../../../arm-none-eabi/lib/thumb/libc.a(lib_a-s_fpclassify.o)
                                                  /opt/local/lib/gcc/arm-none-eabi/4.7.2/../../../../arm-none-eabi/lib/thumb/libc.a(lib_a-svfprintf.o)
                                                  /opt/local/lib/gcc/arm-none-eabi/4.7.2/../../../../arm-none-eabi/lib/thumb/libc.a(lib_a-strtod.o)
                                                  /opt/local/lib/gcc/arm-none-eabi/4.7.2/../../../../arm-none-eabi/lib/thumb/libc.a(lib_a-svfscanf.o)
__gedf2                                           /opt/local/lib/gcc/arm-none-eabi/4.7.2/thumb/libgcc.a(_arm_cmpdf2.o)
__gethex                                          /opt/local/lib/gcc/arm-none-eabi/4.7.2/../../../../arm-none-eabi/lib/thumb/libc.a(lib_a-gdtoa-gethex.o)
                                                  /opt/local/lib/gcc/arm-none-eabi/4.7.2/../../../../arm-none-eabi/lib/thumb/libc.a(lib_a-strtod.o)
__gtdf2                                           /opt/local/lib/gcc/arm-none-eabi/4.7.2/thumb/libgcc.a(_arm_cmpdf2.o)
__hexdig                                          /opt/local/lib/gcc/arm-none-eabi/4.7.2/../../../../arm-none-eabi/lib/thumb/libc.a(lib_a-gdtoa-hexnan.o)
                                                  /opt/local/lib/gcc/arm-none-eabi/4.7.2/../../../../arm-none-eabi/lib/thumb/libc.a(lib_a-gdtoa-gethex.o)
__hexdig_init                                     /opt/local/lib/gcc/arm-none-eabi/4.7.2/../../../../arm-none-eabi/lib/thumb/libc.a(lib_a-gdtoa-gethex.o)
                                                  /opt/local/lib/gcc/arm-none-eabi/4.7.2/../../../../arm-none-eabi/lib/thumb/libc.a(lib_a-gdtoa-hexnan.o)
__hexnan                                          /opt/local/lib/gcc/arm-none-eabi/4.7.2/../../../../arm-none-eabi/lib/thumb/libc.a(lib_a-gdtoa-hexnan.o)
                                                  /opt/local/lib/gcc/arm-none-eabi/4.7.2/../../../../arm-none-eabi/lib/thumb/libc.a(lib_a-strtod.o)
__hi0bits                                         /opt/local/lib/gcc/arm-none-eabi/4.7.2/../../../../arm-none-eabi/lib/thumb/libc.a(lib_a-mprec.o)
                                                  /opt/local/lib/gcc/arm-none-eabi/4.7.2/../../../../arm-none-eabi/lib/thumb/libc.a(lib_a-gdtoa-gethex.o)
                                                  /opt/local/lib/gcc/arm-none-eabi/4.7.2/../../../../arm-none-eabi/lib/thumb/libc.a(lib_a-dtoa.o)
__i2b                                             /opt/local/lib/gcc/arm-none-eabi/4.7.2/../../../../arm-none-eabi/lib/thumb/libc.a(lib_a-mprec.o)
                                                  /opt/local/lib/gcc/arm-none-eabi/4.7.2/../../../../arm-none-eabi/lib/thumb/libc.a(lib_a-dtoa.o)
                                                  /opt/local/lib/gcc/arm-none-eabi/4.7.2/../../../../arm-none-eabi/lib/thumb/libc.a(lib_a-strtod.o)
__ledf2                                           /opt/local/lib/gcc/arm-none-eabi/4.7.2/thumb/libgcc.a(_arm_cmpdf2.o)
__lo0bits                                         /opt/local/lib/gcc/arm-none-eabi/4.7.2/../../../../arm-none-eabi/lib/thumb/libc.a(lib_a-mprec.o)
__locale_charset                                  /opt/local/lib/gcc/arm-none-eabi/4.7.2/../../../../arm-none-eabi/lib/thumb/libc.a(lib_a-locale.o)
                                                  /opt/local/lib/gcc/arm-none-eabi/4.7.2/../../../../arm-none-eabi/lib/thumb/libc.a(lib_a-mbtowc_r.o)
                                                  /opt/local/lib/gcc/arm-none-eabi/4.7.2/../../../../arm-none-eabi/lib/thumb/libc.a(lib_a-mbrtowc.o)
__locale_cjk_lang                                 /opt/local/lib/gcc/arm-none-eabi/4.7.2/../../../../arm-none-eabi/lib/thumb/libc.a(lib_a-locale.o)
__locale_mb_cur_max                               /opt/local/lib/gcc/arm-none-eabi/4.7.2/../../../../arm-none-eabi/lib/thumb/libc.a(lib_a-locale.o)
                                                  /opt/local/lib/gcc/arm-none-eabi/4.7.2/../../../../arm-none-eabi/lib/thumb/libc.a(lib_a-svfiscanf.o)
                                                  /opt/local/lib/gcc/arm-none-eabi/4.7.2/../../../../arm-none-eabi/lib/thumb/libc.a(lib_a-svfscanf.o)
__locale_msgcharset                               /opt/local/lib/gcc/arm-none-eabi/4.7.2/../../../../arm-none-eabi/lib/thumb/libc.a(lib_a-locale.o)
__lshift                                          /opt/local/lib/gcc/arm-none-eabi/4.7.2/../../../../arm-none-eabi/lib/thumb/libc.a(lib_a-mprec.o)
                                                  /opt/local/lib/gcc/arm-none-eabi/4.7.2/../../../../arm-none-eabi/lib/thumb/libc.a(lib_a-gdtoa-gethex.o)
                                                  /opt/local/lib/gcc/arm-none-eabi/4.7.2/../../../../arm-none-eabi/lib/thumb/libc.a(lib_a-dtoa.o)
                                                  /opt/local/lib/gcc/arm-none-eabi/4.7.2/../../../../arm-none-eabi/lib/thumb/libc.a(lib_a-strtod.o)
__ltdf2                                           /opt/local/lib/gcc/arm-none-eabi/4.7.2/thumb/libgcc.a(_arm_cmpdf2.o)
__malloc_av_                                      /opt/local/lib/gcc/arm-none-eabi/4.7.2/../../../../arm-none-eabi/lib/thumb/libc.a(lib_a-mallocr.o)
                                                  /opt/local/lib/gcc/arm-none-eabi/4.7.2/../../../../arm-none-eabi/lib/thumb/libc.a(lib_a-reallocr.o)
                                                  /opt/local/lib/gcc/arm-none-eabi/4.7.2/../../../../arm-none-eabi/lib/thumb/libc.a(lib_a-freer.o)
__malloc_current_mallinfo                         /opt/local/lib/gcc/arm-none-eabi/4.7.2/../../../../arm-none-eabi/lib/thumb/libc.a(lib_a-mallocr.o)
                                                  /opt/local/lib/gcc/arm-none-eabi/4.7.2/../../../../arm-none-eabi/lib/thumb/libc.a(lib_a-freer.o)
__malloc_lock                                     /opt/local/lib/gcc/arm-none-eabi/4.7.2/../../../../arm-none-eabi/lib/thumb/libc.a(lib_a-mlock.o)
                                                  /opt/local/lib/gcc/arm-none-eabi/4.7.2/../../../../arm-none-eabi/lib/thumb/libc.a(lib_a-reallocr.o)
                                                  /opt/local/lib/gcc/arm-none-eabi/4.7.2/../../../../arm-none-eabi/lib/thumb/libc.a(lib_a-mallocr.o)
                                                  /opt/local/lib/gcc/arm-none-eabi/4.7.2/../../../../arm-none-eabi/lib/thumb/libc.a(lib_a-freer.o)
__malloc_max_sbrked_mem                           /opt/local/lib/gcc/arm-none-eabi/4.7.2/../../../../arm-none-eabi/lib/thumb/libc.a(lib_a-mallocr.o)
__malloc_max_total_mem                            /opt/local/lib/gcc/arm-none-eabi/4.7.2/../../../../arm-none-eabi/lib/thumb/libc.a(lib_a-mallocr.o)
__malloc_sbrk_base                                /opt/local/lib/gcc/arm-none-eabi/4.7.2/../../../../arm-none-eabi/lib/thumb/libc.a(lib_a-mallocr.o)
                                                  /opt/local/lib/gcc/arm-none-eabi/4.7.2/../../../../arm-none-eabi/lib/thumb/libc.a(lib_a-freer.o)
__malloc_top_pad                                  /opt/local/lib/gcc/arm-none-eabi/4.7.2/../../../../arm-none-eabi/lib/thumb/libc.a(lib_a-mallocr.o)
                                                  /opt/local/lib/gcc/arm-none-eabi/4.7.2/../../../../arm-none-eabi/lib/thumb/libc.a(lib_a-freer.o)
__malloc_trim_threshold                           /opt/local/lib/gcc/arm-none-eabi/4.7.2/../../../../arm-none-eabi/lib/thumb/libc.a(lib_a-mallocr.o)
                                                  /opt/local/lib/gcc/arm-none-eabi/4.7.2/../../../../arm-none-eabi/lib/thumb/libc.a(lib_a-freer.o)
__malloc_unlock                                   /opt/local/lib/gcc/arm-none-eabi/4.7.2/../../../../arm-none-eabi/lib/thumb/libc.a(lib_a-mlock.o)
                                                  /opt/local/lib/gcc/arm-none-eabi/4.7.2/../../../../arm-none-eabi/lib/thumb/libc.a(lib_a-reallocr.o)
                                                  /opt/local/lib/gcc/arm-none-eabi/4.7.2/../../../../arm-none-eabi/lib/thumb/libc.a(lib_a-mallocr.o)
                                                  /opt/local/lib/gcc/arm-none-eabi/4.7.2/../../../../arm-none-eabi/lib/thumb/libc.a(lib_a-freer.o)
__mb_cur_max                                      /opt/local/lib/gcc/arm-none-eabi/4.7.2/../../../../arm-none-eabi/lib/thumb/libc.a(lib_a-locale.o)
__mbtowc                                          /opt/local/lib/gcc/arm-none-eabi/4.7.2/../../../../arm-none-eabi/lib/thumb/libc.a(lib_a-mbtowc_r.o)
                                                  /opt/local/lib/gcc/arm-none-eabi/4.7.2/../../../../arm-none-eabi/lib/thumb/libc.a(lib_a-mbrtowc.o)
__mcmp                                            /opt/local/lib/gcc/arm-none-eabi/4.7.2/../../../../arm-none-eabi/lib/thumb/libc.a(lib_a-mprec.o)
                                                  /opt/local/lib/gcc/arm-none-eabi/4.7.2/../../../../arm-none-eabi/lib/thumb/libc.a(lib_a-dtoa.o)
                                                  /opt/local/lib/gcc/arm-none-eabi/4.7.2/../../../../arm-none-eabi/lib/thumb/libc.a(lib_a-strtod.o)
__mdiff                                           /opt/local/lib/gcc/arm-none-eabi/4.7.2/../../../../arm-none-eabi/lib/thumb/libc.a(lib_a-mprec.o)
                                                  /opt/local/lib/gcc/arm-none-eabi/4.7.2/../../../../arm-none-eabi/lib/thumb/libc.a(lib_a-dtoa.o)
                                                  /opt/local/lib/gcc/arm-none-eabi/4.7.2/../../../../arm-none-eabi/lib/thumb/libc.a(lib_a-strtod.o)
__mlocale_changed                                 /opt/local/lib/gcc/arm-none-eabi/4.7.2/../../../../arm-none-eabi/lib/thumb/libc.a(lib_a-locale.o)
__mprec_bigtens                                   /opt/local/lib/gcc/arm-none-eabi/4.7.2/../../../../arm-none-eabi/lib/thumb/libc.a(lib_a-mprec.o)
                                                  /opt/local/lib/gcc/arm-none-eabi/4.7.2/../../../../arm-none-eabi/lib/thumb/libc.a(lib_a-dtoa.o)
                                                  /opt/local/lib/gcc/arm-none-eabi/4.7.2/../../../../arm-none-eabi/lib/thumb/libc.a(lib_a-strtod.o)
__mprec_tens                                      /opt/local/lib/gcc/arm-none-eabi/4.7.2/../../../../arm-none-eabi/lib/thumb/libc.a(lib_a-mprec.o)
                                                  /opt/local/lib/gcc/arm-none-eabi/4.7.2/../../../../arm-none-eabi/lib/thumb/libc.a(lib_a-dtoa.o)
                                                  /opt/local/lib/gcc/arm-none-eabi/4.7.2/../../../../arm-none-eabi/lib/thumb/libc.a(lib_a-strtod.o)
__mprec_tinytens                                  /opt/local/lib/gcc/arm-none-eabi/4.7.2/../../../../arm-none-eabi/lib/thumb/libc.a(lib_a-mprec.o)
__muldf3                                          /opt/local/lib/gcc/arm-none-eabi/4.7.2/thumb/libgcc.a(_arm_muldivdf3.o)
__multadd                                         /opt/local/lib/gcc/arm-none-eabi/4.7.2/../../../../arm-none-eabi/lib/thumb/libc.a(lib_a-mprec.o)
                                                  /opt/local/lib/gcc/arm-none-eabi/4.7.2/../../../../arm-none-eabi/lib/thumb/libc.a(lib_a-dtoa.o)
__multiply                                        /opt/local/lib/gcc/arm-none-eabi/4.7.2/../../../../arm-none-eabi/lib/thumb/libc.a(lib_a-mprec.o)
                                                  /opt/local/lib/gcc/arm-none-eabi/4.7.2/../../../../arm-none-eabi/lib/thumb/libc.a(lib_a-dtoa.o)
                                                  /opt/local/lib/gcc/arm-none-eabi/4.7.2/../../../../arm-none-eabi/lib/thumb/libc.a(lib_a-strtod.o)
__nedf2                                           /opt/local/lib/gcc/arm-none-eabi/4.7.2/thumb/libgcc.a(_arm_cmpdf2.o)
__nlocale_changed                                 /opt/local/lib/gcc/arm-none-eabi/4.7.2/../../../../arm-none-eabi/lib/thumb/libc.a(lib_a-locale.o)
__pow5mult                                        /opt/local/lib/gcc/arm-none-eabi/4.7.2/../../../../arm-none-eabi/lib/thumb/libc.a(lib_a-mprec.o)
                                                  /opt/local/lib/gcc/arm-none-eabi/4.7.2/../../../../arm-none-eabi/lib/thumb/libc.a(lib_a-dtoa.o)
                                                  /opt/local/lib/gcc/arm-none-eabi/4.7.2/../../../../arm-none-eabi/lib/thumb/libc.a(lib_a-strtod.o)
__ratio                                           /opt/local/lib/gcc/arm-none-eabi/4.7.2/../../../../arm-none-eabi/lib/thumb/libc.a(lib_a-mprec.o)
                                                  /opt/local/lib/gcc/arm-none-eabi/4.7.2/../../../../arm-none-eabi/lib/thumb/libc.a(lib_a-strtod.o)
__s2b                                             /opt/local/lib/gcc/arm-none-eabi/4.7.2/../../../../arm-none-eabi/lib/thumb/libc.a(lib_a-mprec.o)
                                                  /opt/local/lib/gcc/arm-none-eabi/4.7.2/../../../../arm-none-eabi/lib/thumb/libc.a(lib_a-strtod.o)
__sccl                                            /opt/local/lib/gcc/arm-none-eabi/4.7.2/../../../../arm-none-eabi/lib/thumb/libc.a(lib_a-sccl.o)
                                                  /opt/local/lib/gcc/arm-none-eabi/4.7.2/../../../../arm-none-eabi/lib/thumb/libc.a(lib_a-svfiscanf.o)
                                                  /opt/local/lib/gcc/arm-none-eabi/4.7.2/../../../../arm-none-eabi/lib/thumb/libc.a(lib_a-svfscanf.o)
__sclose                                          /opt/local/lib/gcc/arm-none-eabi/4.7.2/../../../../arm-none-eabi/lib/thumb/libc.a(lib_a-stdio.o)
                                                  /opt/local/lib/gcc/arm-none-eabi/4.7.2/../../../../arm-none-eabi/lib/thumb/libc.a(lib_a-findfp.o)
__seofread                                        /opt/local/lib/gcc/arm-none-eabi/4.7.2/../../../../arm-none-eabi/lib/thumb/libc.a(lib_a-stdio.o)
                                                  /opt/local/lib/gcc/arm-none-eabi/4.7.2/../../../../arm-none-eabi/lib/thumb/libc.a(lib_a-sscanf.o)
__sflush_r                                        /opt/local/lib/gcc/arm-none-eabi/4.7.2/../../../../arm-none-eabi/lib/thumb/libc.a(lib_a-fflush.o)
__sfmoreglue                                      /opt/local/lib/gcc/arm-none-eabi/4.7.2/../../../../arm-none-eabi/lib/thumb/libc.a(lib_a-findfp.o)
__sfp                                             /opt/local/lib/gcc/arm-none-eabi/4.7.2/../../../../arm-none-eabi/lib/thumb/libc.a(lib_a-findfp.o)
__sfp_lock_acquire                                /opt/local/lib/gcc/arm-none-eabi/4.7.2/../../../../arm-none-eabi/lib/thumb/libc.a(lib_a-findfp.o)
                                                  /opt/local/lib/gcc/arm-none-eabi/4.7.2/../../../../arm-none-eabi/lib/thumb/libc.a(lib_a-fclose.o)
__sfp_lock_release                                /opt/local/lib/gcc/arm-none-eabi/4.7.2/../../../../arm-none-eabi/lib/thumb/libc.a(lib_a-findfp.o)
                                                  /opt/local/lib/gcc/arm-none-eabi/4.7.2/../../../../arm-none-eabi/lib/thumb/libc.a(lib_a-fclose.o)
__sinit                                           /opt/local/lib/gcc/arm-none-eabi/4.7.2/../../../../arm-none-eabi/lib/thumb/libc.a(lib_a-findfp.o)
                                                  /opt/local/lib/gcc/arm-none-eabi/4.7.2/../../../../arm-none-eabi/lib/thumb/libc.a(lib_a-fclose.o)
                                                  /opt/local/lib/gcc/arm-none-eabi/4.7.2/../../../../arm-none-eabi/lib/thumb/libc.a(lib_a-fflush.o)
                                                  /opt/local/lib/gcc/arm-none-eabi/4.7.2/../../../../arm-none-eabi/lib/thumb/libc.a(lib_a-ungetc.o)
                                                  /opt/local/lib/gcc/arm-none-eabi/4.7.2/../../../../arm-none-eabi/lib/thumb/libc.a(lib_a-syscalls.o)
__sinit_lock_acquire                              /opt/local/lib/gcc/arm-none-eabi/4.7.2/../../../../arm-none-eabi/lib/thumb/libc.a(lib_a-findfp.o)
__sinit_lock_release                              /opt/local/lib/gcc/arm-none-eabi/4.7.2/../../../../arm-none-eabi/lib/thumb/libc.a(lib_a-findfp.o)
__sread                                           /opt/local/lib/gcc/arm-none-eabi/4.7.2/../../../../arm-none-eabi/lib/thumb/libc.a(lib_a-stdio.o)
                                                  /opt/local/lib/gcc/arm-none-eabi/4.7.2/../../../../arm-none-eabi/lib/thumb/libc.a(lib_a-findfp.o)
__sseek                                           /opt/local/lib/gcc/arm-none-eabi/4.7.2/../../../../arm-none-eabi/lib/thumb/libc.a(lib_a-stdio.o)
                                                  /opt/local/lib/gcc/arm-none-eabi/4.7.2/../../../../arm-none-eabi/lib/thumb/libc.a(lib_a-findfp.o)
__ssprint_r                                       /opt/local/lib/gcc/arm-none-eabi/4.7.2/../../../../arm-none-eabi/lib/thumb/libc.a(lib_a-svfiprintf.o)
                                                  /opt/local/lib/gcc/arm-none-eabi/4.7.2/../../../../arm-none-eabi/lib/thumb/libc.a(lib_a-svfprintf.o)
__ssrefill_r                                      /opt/local/lib/gcc/arm-none-eabi/4.7.2/../../../../arm-none-eabi/lib/thumb/libc.a(lib_a-svfiscanf.o)
                                                  /opt/local/lib/gcc/arm-none-eabi/4.7.2/../../../../arm-none-eabi/lib/thumb/libc.a(lib_a-svfscanf.o)
__ssvfiscanf_r                                    /opt/local/lib/gcc/arm-none-eabi/4.7.2/../../../../arm-none-eabi/lib/thumb/libc.a(lib_a-svfiscanf.o)
__ssvfscanf_r                                     /opt/local/lib/gcc/arm-none-eabi/4.7.2/../../../../arm-none-eabi/lib/thumb/libc.a(lib_a-svfscanf.o)
                                                  /opt/local/lib/gcc/arm-none-eabi/4.7.2/../../../../arm-none-eabi/lib/thumb/libc.a(lib_a-sscanf.o)
__subdf3                                          /opt/local/lib/gcc/arm-none-eabi/4.7.2/thumb/libgcc.a(_arm_addsubdf3.o)
__submore                                         /opt/local/lib/gcc/arm-none-eabi/4.7.2/../../../../arm-none-eabi/lib/thumb/libc.a(lib_a-ungetc.o)
                                                  /opt/local/lib/gcc/arm-none-eabi/4.7.2/../../../../arm-none-eabi/lib/thumb/libc.a(lib_a-svfiscanf.o)
__swrite                                          /opt/local/lib/gcc/arm-none-eabi/4.7.2/../../../../arm-none-eabi/lib/thumb/libc.a(lib_a-stdio.o)
                                                  /opt/local/lib/gcc/arm-none-eabi/4.7.2/../../../../arm-none-eabi/lib/thumb/libc.a(lib_a-findfp.o)
__truncdfsf2                                      /opt/local/lib/gcc/arm-none-eabi/4.7.2/thumb/libgcc.a(_arm_truncdfsf2.o)
__udivsi3                                         /opt/local/lib/gcc/arm-none-eabi/4.7.2/thumb/libgcc.a(_udivsi3.o)
__ulp                                             /opt/local/lib/gcc/arm-none-eabi/4.7.2/../../../../arm-none-eabi/lib/thumb/libc.a(lib_a-mprec.o)
                                                  /opt/local/lib/gcc/arm-none-eabi/4.7.2/../../../../arm-none-eabi/lib/thumb/libc.a(lib_a-strtod.o)
_calloc_r                                         /opt/local/lib/gcc/arm-none-eabi/4.7.2/../../../../arm-none-eabi/lib/thumb/libc.a(lib_a-callocr.o)
                                                  /opt/local/lib/gcc/arm-none-eabi/4.7.2/../../../../arm-none-eabi/lib/thumb/libc.a(lib_a-mprec.o)
_cleanup                                          /opt/local/lib/gcc/arm-none-eabi/4.7.2/../../../../arm-none-eabi/lib/thumb/libc.a(lib_a-findfp.o)
_cleanup_r                                        /opt/local/lib/gcc/arm-none-eabi/4.7.2/../../../../arm-none-eabi/lib/thumb/libc.a(lib_a-findfp.o)
_close                                            /opt/local/lib/gcc/arm-none-eabi/4.7.2/../../../../arm-none-eabi/lib/thumb/libc.a(lib_a-syscalls.o)
                                                  /opt/local/lib/gcc/arm-none-eabi/4.7.2/../../../../arm-none-eabi/lib/thumb/libc.a(lib_a-closer.o)
_close_r                                          /opt/local/lib/gcc/arm-none-eabi/4.7.2/../../../../arm-none-eabi/lib/thumb/libc.a(lib_a-closer.o)
                                                  /opt/local/lib/gcc/arm-none-eabi/4.7.2/../../../../arm-none-eabi/lib/thumb/libc.a(lib_a-stdio.o)
_ctype_                                           /opt/local/lib/gcc/arm-none-eabi/4.7.2/../../../../arm-none-eabi/lib/thumb/libc.a(lib_a-ctype_.o)
_dtoa_r                                           /opt/local/lib/gcc/arm-none-eabi/4.7.2/../../../../arm-none-eabi/lib/thumb/libc.a(lib_a-dtoa.o)
                                                  /opt/local/lib/gcc/arm-none-eabi/4.7.2/../../../../arm-none-eabi/lib/thumb/libc.a(lib_a-svfprintf.o)
_ebss                                             Hw_StartUp.o
_edata                                            Hw_StartUp.o
_estack                                           Hw_StartUp.o
_exit                                             /opt/local/lib/gcc/arm-none-eabi/4.7.2/../../../../arm-none-eabi/lib/thumb/libc.a(lib_a-syscalls.o)
_fclose_r                                         /opt/local/lib/gcc/arm-none-eabi/4.7.2/../../../../arm-none-eabi/lib/thumb/libc.a(lib_a-fclose.o)
_fflush_r                                         /opt/local/lib/gcc/arm-none-eabi/4.7.2/../../../../arm-none-eabi/lib/thumb/libc.a(lib_a-fflush.o)
                                                  /opt/local/lib/gcc/arm-none-eabi/4.7.2/../../../../arm-none-eabi/lib/thumb/libc.a(lib_a-fclose.o)
                                                  /opt/local/lib/gcc/arm-none-eabi/4.7.2/../../../../arm-none-eabi/lib/thumb/libc.a(lib_a-ungetc.o)
_free_r                                           /opt/local/lib/gcc/arm-none-eabi/4.7.2/../../../../arm-none-eabi/lib/thumb/libc.a(lib_a-freer.o)
                                                  /opt/local/lib/gcc/arm-none-eabi/4.7.2/../../../../arm-none-eabi/lib/thumb/libc.a(lib_a-fclose.o)
                                                  /opt/local/lib/gcc/arm-none-eabi/4.7.2/../../../../arm-none-eabi/lib/thumb/libc.a(lib_a-svfiprintf.o)
                                                  /opt/local/lib/gcc/arm-none-eabi/4.7.2/../../../../arm-none-eabi/lib/thumb/libc.a(lib_a-reallocr.o)
                                                  /opt/local/lib/gcc/arm-none-eabi/4.7.2/../../../../arm-none-eabi/lib/thumb/libc.a(lib_a-mallocr.o)
                                                  /opt/local/lib/gcc/arm-none-eabi/4.7.2/../../../../arm-none-eabi/lib/thumb/libc.a(lib_a-fflush.o)
                                                  /opt/local/lib/gcc/arm-none-eabi/4.7.2/../../../../arm-none-eabi/lib/thumb/libc.a(lib_a-svfiscanf.o)
                                                  /opt/local/lib/gcc/arm-none-eabi/4.7.2/../../../../arm-none-eabi/lib/thumb/libc.a(lib_a-reent.o)
_fstat                                            /opt/local/lib/gcc/arm-none-eabi/4.7.2/../../../../arm-none-eabi/lib/thumb/libc.a(lib_a-syscalls.o)
_fwalk                                            /opt/local/lib/gcc/arm-none-eabi/4.7.2/../../../../arm-none-eabi/lib/thumb/libc.a(lib_a-fwalk.o)
                                                  /opt/local/lib/gcc/arm-none-eabi/4.7.2/../../../../arm-none-eabi/lib/thumb/libc.a(lib_a-findfp.o)
_fwalk_reent                                      /opt/local/lib/gcc/arm-none-eabi/4.7.2/../../../../arm-none-eabi/lib/thumb/libc.a(lib_a-fwalk.o)
                                                  /opt/local/lib/gcc/arm-none-eabi/4.7.2/../../../../arm-none-eabi/lib/thumb/libc.a(lib_a-fflush.o)
_getpid                                           /opt/local/lib/gcc/arm-none-eabi/4.7.2/../../../../arm-none-eabi/lib/thumb/libc.a(lib_a-syscalls.o)
_gettimeofday                                     /opt/local/lib/gcc/arm-none-eabi/4.7.2/../../../../arm-none-eabi/lib/thumb/libc.a(lib_a-syscalls.o)
_global_impure_ptr                                /opt/local/lib/gcc/arm-none-eabi/4.7.2/../../../../arm-none-eabi/lib/thumb/libc.a(lib_a-impure.o)
                                                  /opt/local/lib/gcc/arm-none-eabi/4.7.2/../../../../arm-none-eabi/lib/thumb/libc.a(lib_a-findfp.o)
                                                  /opt/local/lib/gcc/arm-none-eabi/4.7.2/../../../../arm-none-eabi/lib/thumb/libc.a(lib_a-fflush.o)
_impure_ptr                                       /opt/local/lib/gcc/arm-none-eabi/4.7.2/../../../../arm-none-eabi/lib/thumb/libc.a(lib_a-impure.o)
                                                  /opt/local/lib/gcc/arm-none-eabi/4.7.2/../../../../arm-none-eabi/lib/thumb/libc.a(lib_a-fclose.o)
                                                  /opt/local/lib/gcc/arm-none-eabi/4.7.2/../../../../arm-none-eabi/lib/thumb/libc.a(lib_a-findfp.o)
                                                  /opt/local/lib/gcc/arm-none-eabi/4.7.2/../../../../arm-none-eabi/lib/thumb/libc.a(lib_a-fflush.o)
                                                  /opt/local/lib/gcc/arm-none-eabi/4.7.2/../../../../arm-none-eabi/lib/thumb/libc.a(lib_a-errno.o)
                                                  /opt/local/lib/gcc/arm-none-eabi/4.7.2/../../../../arm-none-eabi/lib/thumb/libc.a(lib_a-ungetc.o)
                                                  /opt/local/lib/gcc/arm-none-eabi/4.7.2/../../../../arm-none-eabi/lib/thumb/libc.a(lib_a-syscalls.o)
                                                  /opt/local/lib/gcc/arm-none-eabi/4.7.2/../../../../arm-none-eabi/lib/thumb/libc.a(lib_a-strtoul.o)
                                                  /opt/local/lib/gcc/arm-none-eabi/4.7.2/../../../../arm-none-eabi/lib/thumb/libc.a(lib_a-strtol.o)
                                                  /opt/local/lib/gcc/arm-none-eabi/4.7.2/../../../../arm-none-eabi/lib/thumb/libc.a(lib_a-strtod.o)
                                                  /opt/local/lib/gcc/arm-none-eabi/4.7.2/../../../../arm-none-eabi/lib/thumb/libc.a(lib_a-sprintf.o)
                                                  /opt/local/lib/gcc/arm-none-eabi/4.7.2/../../../../arm-none-eabi/lib/thumb/libc.a(lib_a-reent.o)
                                                  /opt/local/lib/gcc/arm-none-eabi/4.7.2/../../../../arm-none-eabi/lib/thumb/libc.a(lib_a-mbrtowc.o)
                                                  /opt/local/lib/gcc/arm-none-eabi/4.7.2/../../../../arm-none-eabi/lib/thumb/libc.a(lib_a-locale.o)
                                                  /opt/local/lib/gcc/arm-none-eabi/4.7.2/../../../../arm-none-eabi/lib/thumb/libc.a(lib_a-sscanf.o)
_isatty                                           /opt/local/lib/gcc/arm-none-eabi/4.7.2/../../../../arm-none-eabi/lib/thumb/libc.a(lib_a-syscalls.o)
_kill                                             /opt/local/lib/gcc/arm-none-eabi/4.7.2/../../../../arm-none-eabi/lib/thumb/libc.a(lib_a-syscalls.o)
_link                                             /opt/local/lib/gcc/arm-none-eabi/4.7.2/../../../../arm-none-eabi/lib/thumb/libc.a(lib_a-syscalls.o)
_localeconv_r                                     /opt/local/lib/gcc/arm-none-eabi/4.7.2/../../../../arm-none-eabi/lib/thumb/libc.a(lib_a-locale.o)
                                                  /opt/local/lib/gcc/arm-none-eabi/4.7.2/../../../../arm-none-eabi/lib/thumb/libc.a(lib_a-gdtoa-gethex.o)
                                                  /opt/local/lib/gcc/arm-none-eabi/4.7.2/../../../../arm-none-eabi/lib/thumb/libc.a(lib_a-svfprintf.o)
                                                  /opt/local/lib/gcc/arm-none-eabi/4.7.2/../../../../arm-none-eabi/lib/thumb/libc.a(lib_a-strtod.o)
_lseek                                            /opt/local/lib/gcc/arm-none-eabi/4.7.2/../../../../arm-none-eabi/lib/thumb/libc.a(lib_a-syscalls.o)
                                                  /opt/local/lib/gcc/arm-none-eabi/4.7.2/../../../../arm-none-eabi/lib/thumb/libc.a(lib_a-lseekr.o)
_lseek_r                                          /opt/local/lib/gcc/arm-none-eabi/4.7.2/../../../../arm-none-eabi/lib/thumb/libc.a(lib_a-lseekr.o)
                                                  /opt/local/lib/gcc/arm-none-eabi/4.7.2/../../../../arm-none-eabi/lib/thumb/libc.a(lib_a-stdio.o)
_malloc_r                                         /opt/local/lib/gcc/arm-none-eabi/4.7.2/../../../../arm-none-eabi/lib/thumb/libc.a(lib_a-mallocr.o)
                                                  /opt/local/lib/gcc/arm-none-eabi/4.7.2/../../../../arm-none-eabi/lib/thumb/libc.a(lib_a-callocr.o)
                                                  /opt/local/lib/gcc/arm-none-eabi/4.7.2/../../../../arm-none-eabi/lib/thumb/libc.a(lib_a-svfiprintf.o)
                                                  /opt/local/lib/gcc/arm-none-eabi/4.7.2/../../../../arm-none-eabi/lib/thumb/libc.a(lib_a-reallocr.o)
                                                  /opt/local/lib/gcc/arm-none-eabi/4.7.2/../../../../arm-none-eabi/lib/thumb/libc.a(lib_a-findfp.o)
                                                  /opt/local/lib/gcc/arm-none-eabi/4.7.2/../../../../arm-none-eabi/lib/thumb/libc.a(lib_a-ungetc.o)
                                                  /opt/local/lib/gcc/arm-none-eabi/4.7.2/../../../../arm-none-eabi/lib/thumb/libc.a(lib_a-svfprintf.o)
_malloc_trim_r                                    /opt/local/lib/gcc/arm-none-eabi/4.7.2/../../../../arm-none-eabi/lib/thumb/libc.a(lib_a-freer.o)
_mbrtowc_r                                        /opt/local/lib/gcc/arm-none-eabi/4.7.2/../../../../arm-none-eabi/lib/thumb/libc.a(lib_a-mbrtowc.o)
                                                  /opt/local/lib/gcc/arm-none-eabi/4.7.2/../../../../arm-none-eabi/lib/thumb/libc.a(lib_a-svfiscanf.o)
                                                  /opt/local/lib/gcc/arm-none-eabi/4.7.2/../../../../arm-none-eabi/lib/thumb/libc.a(lib_a-svfscanf.o)
_mbtowc_r                                         /opt/local/lib/gcc/arm-none-eabi/4.7.2/../../../../arm-none-eabi/lib/thumb/libc.a(lib_a-mbtowc_r.o)
_mprec_log10                                      /opt/local/lib/gcc/arm-none-eabi/4.7.2/../../../../arm-none-eabi/lib/thumb/libc.a(lib_a-mprec.o)
_open                                             /opt/local/lib/gcc/arm-none-eabi/4.7.2/../../../../arm-none-eabi/lib/thumb/libc.a(lib_a-syscalls.o)
_raise                                            /opt/local/lib/gcc/arm-none-eabi/4.7.2/../../../../arm-none-eabi/lib/thumb/libc.a(lib_a-syscalls.o)
_read                                             /opt/local/lib/gcc/arm-none-eabi/4.7.2/../../../../arm-none-eabi/lib/thumb/libc.a(lib_a-syscalls.o)
                                                  /opt/local/lib/gcc/arm-none-eabi/4.7.2/../../../../arm-none-eabi/lib/thumb/libc.a(lib_a-readr.o)
_read_r                                           /opt/local/lib/gcc/arm-none-eabi/4.7.2/../../../../arm-none-eabi/lib/thumb/libc.a(lib_a-readr.o)
                                                  /opt/local/lib/gcc/arm-none-eabi/4.7.2/../../../../arm-none-eabi/lib/thumb/libc.a(lib_a-stdio.o)
_realloc_r                                        /opt/local/lib/gcc/arm-none-eabi/4.7.2/../../../../arm-none-eabi/lib/thumb/libc.a(lib_a-reallocr.o)
                                                  /opt/local/lib/gcc/arm-none-eabi/4.7.2/../../../../arm-none-eabi/lib/thumb/libc.a(lib_a-svfiprintf.o)
                                                  /opt/local/lib/gcc/arm-none-eabi/4.7.2/../../../../arm-none-eabi/lib/thumb/libc.a(lib_a-ungetc.o)
_reclaim_reent                                    /opt/local/lib/gcc/arm-none-eabi/4.7.2/../../../../arm-none-eabi/lib/thumb/libc.a(lib_a-reent.o)
_rename                                           /opt/local/lib/gcc/arm-none-eabi/4.7.2/../../../../arm-none-eabi/lib/thumb/libc.a(lib_a-syscalls.o)
_sbrk                                             /opt/local/lib/gcc/arm-none-eabi/4.7.2/../../../../arm-none-eabi/lib/thumb/libc.a(lib_a-syscalls.o)
                                                  /opt/local/lib/gcc/arm-none-eabi/4.7.2/../../../../arm-none-eabi/lib/thumb/libc.a(lib_a-sbrkr.o)
_sbrk_r                                           /opt/local/lib/gcc/arm-none-eabi/4.7.2/../../../../arm-none-eabi/lib/thumb/libc.a(lib_a-sbrkr.o)
                                                  /opt/local/lib/gcc/arm-none-eabi/4.7.2/../../../../arm-none-eabi/lib/thumb/libc.a(lib_a-mallocr.o)
                                                  /opt/local/lib/gcc/arm-none-eabi/4.7.2/../../../../arm-none-eabi/lib/thumb/libc.a(lib_a-freer.o)
_sbss                                             Hw_StartUp.o
_sdata                                            Hw_StartUp.o
_setlocale_r                                      /opt/local/lib/gcc/arm-none-eabi/4.7.2/../../../../arm-none-eabi/lib/thumb/libc.a(lib_a-locale.o)
_sfread_r                                         /opt/local/lib/gcc/arm-none-eabi/4.7.2/../../../../arm-none-eabi/lib/thumb/libc.a(lib_a-svfiscanf.o)
                                                  /opt/local/lib/gcc/arm-none-eabi/4.7.2/../../../../arm-none-eabi/lib/thumb/libc.a(lib_a-svfscanf.o)
_sidata                                           Hw_StartUp.o
_sprintf_r                                        /opt/local/lib/gcc/arm-none-eabi/4.7.2/../../../../arm-none-eabi/lib/thumb/libc.a(lib_a-sprintf.o)
_sscanf_r                                         /opt/local/lib/gcc/arm-none-eabi/4.7.2/../../../../arm-none-eabi/lib/thumb/libc.a(lib_a-sscanf.o)
_stat                                             /opt/local/lib/gcc/arm-none-eabi/4.7.2/../../../../arm-none-eabi/lib/thumb/libc.a(lib_a-syscalls.o)
_strtod_r                                         /opt/local/lib/gcc/arm-none-eabi/4.7.2/../../../../arm-none-eabi/lib/thumb/libc.a(lib_a-strtod.o)
                                                  /opt/local/lib/gcc/arm-none-eabi/4.7.2/../../../../arm-none-eabi/lib/thumb/libc.a(lib_a-svfscanf.o)
_strtol_r                                         /opt/local/lib/gcc/arm-none-eabi/4.7.2/../../../../arm-none-eabi/lib/thumb/libc.a(lib_a-strtol.o)
                                                  /opt/local/lib/gcc/arm-none-eabi/4.7.2/../../../../arm-none-eabi/lib/thumb/libc.a(lib_a-svfiscanf.o)
                                                  /opt/local/lib/gcc/arm-none-eabi/4.7.2/../../../../arm-none-eabi/lib/thumb/libc.a(lib_a-svfscanf.o)
_strtoul_r                                        /opt/local/lib/gcc/arm-none-eabi/4.7.2/../../../../arm-none-eabi/lib/thumb/libc.a(lib_a-strtoul.o)
                                                  /opt/local/lib/gcc/arm-none-eabi/4.7.2/../../../../arm-none-eabi/lib/thumb/libc.a(lib_a-svfiscanf.o)
                                                  /opt/local/lib/gcc/arm-none-eabi/4.7.2/../../../../arm-none-eabi/lib/thumb/libc.a(lib_a-svfscanf.o)
_sungetc_r                                        /opt/local/lib/gcc/arm-none-eabi/4.7.2/../../../../arm-none-eabi/lib/thumb/libc.a(lib_a-svfiscanf.o)
                                                  /opt/local/lib/gcc/arm-none-eabi/4.7.2/../../../../arm-none-eabi/lib/thumb/libc.a(lib_a-svfscanf.o)
_svfiprintf_r                                     /opt/local/lib/gcc/arm-none-eabi/4.7.2/../../../../arm-none-eabi/lib/thumb/libc.a(lib_a-svfiprintf.o)
_svfprintf_r                                      /opt/local/lib/gcc/arm-none-eabi/4.7.2/../../../../arm-none-eabi/lib/thumb/libc.a(lib_a-svfprintf.o)
                                                  /opt/local/lib/gcc/arm-none-eabi/4.7.2/../../../../arm-none-eabi/lib/thumb/libc.a(lib_a-sprintf.o)
_swiclose                                         /opt/local/lib/gcc/arm-none-eabi/4.7.2/../../../../arm-none-eabi/lib/thumb/libc.a(lib_a-syscalls.o)
_swilseek                                         /opt/local/lib/gcc/arm-none-eabi/4.7.2/../../../../arm-none-eabi/lib/thumb/libc.a(lib_a-syscalls.o)
_swiopen                                          /opt/local/lib/gcc/arm-none-eabi/4.7.2/../../../../arm-none-eabi/lib/thumb/libc.a(lib_a-syscalls.o)
_swiread                                          /opt/local/lib/gcc/arm-none-eabi/4.7.2/../../../../arm-none-eabi/lib/thumb/libc.a(lib_a-syscalls.o)
_swiwrite                                         /opt/local/lib/gcc/arm-none-eabi/4.7.2/../../../../arm-none-eabi/lib/thumb/libc.a(lib_a-syscalls.o)
_system                                           /opt/local/lib/gcc/arm-none-eabi/4.7.2/../../../../arm-none-eabi/lib/thumb/libc.a(lib_a-syscalls.o)
_times                                            /opt/local/lib/gcc/arm-none-eabi/4.7.2/../../../../arm-none-eabi/lib/thumb/libc.a(lib_a-syscalls.o)
_ungetc_r                                         /opt/local/lib/gcc/arm-none-eabi/4.7.2/../../../../arm-none-eabi/lib/thumb/libc.a(lib_a-ungetc.o)
_unlink                                           /opt/local/lib/gcc/arm-none-eabi/4.7.2/../../../../arm-none-eabi/lib/thumb/libc.a(lib_a-syscalls.o)
_wrapup_reent                                     /opt/local/lib/gcc/arm-none-eabi/4.7.2/../../../../arm-none-eabi/lib/thumb/libc.a(lib_a-reent.o)
_write                                            /opt/local/lib/gcc/arm-none-eabi/4.7.2/../../../../arm-none-eabi/lib/thumb/libc.a(lib_a-syscalls.o)
                                                  /opt/local/lib/gcc/arm-none-eabi/4.7.2/../../../../arm-none-eabi/lib/thumb/libc.a(lib_a-writer.o)
_write_r                                          /opt/local/lib/gcc/arm-none-eabi/4.7.2/../../../../arm-none-eabi/lib/thumb/libc.a(lib_a-writer.o)
                                                  /opt/local/lib/gcc/arm-none-eabi/4.7.2/../../../../arm-none-eabi/lib/thumb/libc.a(lib_a-stdio.o)
bDeviceState                                      usb_pwr.o
                                                  hw_config.o
                                                  usb_prop.o
                                                  usb_endp.o
bIntPackSOF                                       usb_istr.o
cleanup_glue                                      /opt/local/lib/gcc/arm-none-eabi/4.7.2/../../../../arm-none-eabi/lib/thumb/libc.a(lib_a-reent.o)
delay                                             Lb_Util.o
delay_second                                      Lb_Util.o
end                                               /opt/local/lib/gcc/arm-none-eabi/4.7.2/../../../../arm-none-eabi/lib/thumb/libc.a(lib_a-syscalls.o)
errno                                             /opt/local/lib/gcc/arm-none-eabi/4.7.2/../../../../arm-none-eabi/lib/thumb/libc.a(lib_a-sbrkr.o)
                                                  /opt/local/lib/gcc/arm-none-eabi/4.7.2/../../../../arm-none-eabi/lib/thumb/libc.a(lib_a-reent.o)
                                                  /opt/local/lib/gcc/arm-none-eabi/4.7.2/../../../../arm-none-eabi/lib/thumb/libc.a(lib_a-readr.o)
                                                  /opt/local/lib/gcc/arm-none-eabi/4.7.2/../../../../arm-none-eabi/lib/thumb/libc.a(lib_a-lseekr.o)
                                                  /opt/local/lib/gcc/arm-none-eabi/4.7.2/../../../../arm-none-eabi/lib/thumb/libc.a(lib_a-closer.o)
                                                  /opt/local/lib/gcc/arm-none-eabi/4.7.2/../../../../arm-none-eabi/lib/thumb/libc.a(lib_a-writer.o)
esof_counter                                      usb_istr.o
fSuspendEnabled                                   usb_pwr.o
                                                  usb_istr.o
fclose                                            /opt/local/lib/gcc/arm-none-eabi/4.7.2/../../../../arm-none-eabi/lib/thumb/libc.a(lib_a-fclose.o)
                                                  /opt/local/lib/gcc/arm-none-eabi/4.7.2/../../../../arm-none-eabi/lib/thumb/libc.a(lib_a-findfp.o)
fflush                                            /opt/local/lib/gcc/arm-none-eabi/4.7.2/../../../../arm-none-eabi/lib/thumb/libc.a(lib_a-fflush.o)
g_pfnVectors                                      Hw_StartUp.o
get_byte                                          Hw_Uart.o
                                                  Ap_EduMenu.o
                                                  Ap_GLcdMenu.o
                                                  Ap_RadioMenu.o
initialise_monitor_handles                        /opt/local/lib/gcc/arm-none-eabi/4.7.2/../../../../arm-none-eabi/lib/thumb/libc.a(lib_a-syscalls.o)
iswspace                                          /opt/local/lib/gcc/arm-none-eabi/4.7.2/../../../../arm-none-eabi/lib/thumb/libc.a(lib_a-iswspace.o)
                                                  /opt/local/lib/gcc/arm-none-eabi/4.7.2/../../../../arm-none-eabi/lib/thumb/libc.a(lib_a-svfiscanf.o)
                                                  /opt/local/lib/gcc/arm-none-eabi/4.7.2/../../../../arm-none-eabi/lib/thumb/libc.a(lib_a-svfscanf.o)
linecoding                                        usb_prop.o
localeconv                                        /opt/local/lib/gcc/arm-none-eabi/4.7.2/../../../../arm-none-eabi/lib/thumb/libc.a(lib_a-locale.o)
main                                              main.o
                                                  Hw_StartUp.o
mbrtowc                                           /opt/local/lib/gcc/arm-none-eabi/4.7.2/../../../../arm-none-eabi/lib/thumb/libc.a(lib_a-mbrtowc.o)
memchr                                            /opt/local/lib/gcc/arm-none-eabi/4.7.2/../../../../arm-none-eabi/lib/thumb/libc.a(lib_a-memchr-stub.o)
                                                  /opt/local/lib/gcc/arm-none-eabi/4.7.2/../../../../arm-none-eabi/lib/thumb/libc.a(lib_a-svfiprintf.o)
                                                  /opt/local/lib/gcc/arm-none-eabi/4.7.2/../../../../arm-none-eabi/lib/thumb/libc.a(lib_a-svfprintf.o)
memcpy                                            /opt/local/lib/gcc/arm-none-eabi/4.7.2/../../../../arm-none-eabi/lib/thumb/libc.a(lib_a-memcpy-stub.o)
                                                  /opt/local/lib/gcc/arm-none-eabi/4.7.2/../../../../arm-none-eabi/lib/thumb/libc.a(lib_a-svfiprintf.o)
                                                  /opt/local/lib/gcc/arm-none-eabi/4.7.2/../../../../arm-none-eabi/lib/thumb/libc.a(lib_a-mprec.o)
                                                  /opt/local/lib/gcc/arm-none-eabi/4.7.2/../../../../arm-none-eabi/lib/thumb/libc.a(lib_a-gdtoa-gethex.o)
                                                  /opt/local/lib/gcc/arm-none-eabi/4.7.2/../../../../arm-none-eabi/lib/thumb/libc.a(lib_a-dtoa.o)
                                                  /opt/local/lib/gcc/arm-none-eabi/4.7.2/../../../../arm-none-eabi/lib/thumb/libc.a(lib_a-ungetc.o)
                                                  /opt/local/lib/gcc/arm-none-eabi/4.7.2/../../../../arm-none-eabi/lib/thumb/libc.a(lib_a-svfiscanf.o)
                                                  /opt/local/lib/gcc/arm-none-eabi/4.7.2/../../../../arm-none-eabi/lib/thumb/libc.a(lib_a-strtod.o)
memmove                                           /opt/local/lib/gcc/arm-none-eabi/4.7.2/../../../../arm-none-eabi/lib/thumb/libc.a(lib_a-memmove.o)
                                                  /opt/local/lib/gcc/arm-none-eabi/4.7.2/../../../../arm-none-eabi/lib/thumb/libc.a(lib_a-svfiprintf.o)
                                                  /opt/local/lib/gcc/arm-none-eabi/4.7.2/../../../../arm-none-eabi/lib/thumb/libc.a(lib_a-reallocr.o)
memset                                            /opt/local/lib/gcc/arm-none-eabi/4.7.2/../../../../arm-none-eabi/lib/thumb/libc.a(lib_a-memset.o)
                                                  /opt/local/lib/gcc/arm-none-eabi/4.7.2/../../../../arm-none-eabi/lib/thumb/libc.a(lib_a-callocr.o)
                                                  /opt/local/lib/gcc/arm-none-eabi/4.7.2/../../../../arm-none-eabi/lib/thumb/libc.a(lib_a-findfp.o)
                                                  /opt/local/lib/gcc/arm-none-eabi/4.7.2/../../../../arm-none-eabi/lib/thumb/libc.a(lib_a-syscalls.o)
                                                  /opt/local/lib/gcc/arm-none-eabi/4.7.2/../../../../arm-none-eabi/lib/thumb/libc.a(lib_a-svfiscanf.o)
                                                  /opt/local/lib/gcc/arm-none-eabi/4.7.2/../../../../arm-none-eabi/lib/thumb/libc.a(lib_a-svfscanf.o)
nanf                                              /opt/local/lib/gcc/arm-none-eabi/4.7.2/../../../../arm-none-eabi/lib/thumb/libc.a(lib_a-sf_nan.o)
                                                  /opt/local/lib/gcc/arm-none-eabi/4.7.2/../../../../arm-none-eabi/lib/thumb/libc.a(lib_a-strtod.o)
                                                  /opt/local/lib/gcc/arm-none-eabi/4.7.2/../../../../arm-none-eabi/lib/thumb/libc.a(lib_a-svfscanf.o)
pEpInt_IN                                         usb_istr.o
                                                  usb_int.o
pEpInt_OUT                                        usb_istr.o
                                                  usb_int.o
pInformation                                      usb_init.o
                                                  usb_core.o
                                                  usb_prop.o
pProperty                                         usb_init.o
                                                  usb_core.o
pStrPrintBuf                                      Lb_Printf.o
pUser_Standard_Requests                           usb_init.o
                                                  usb_core.o
print_byte                                        Hw_Uart.o
                                                  Lb_Printf.o
print_byte_out                                    Lb_Printf.o
remotewakeupon                                    usb_pwr.o
setlocale                                         /opt/local/lib/gcc/arm-none-eabi/4.7.2/../../../../arm-none-eabi/lib/thumb/libc.a(lib_a-locale.o)
sprintf                                           /opt/local/lib/gcc/arm-none-eabi/4.7.2/../../../../arm-none-eabi/lib/thumb/libc.a(lib_a-sprintf.o)
                                                  /opt/local/lib/gcc/arm-none-eabi/4.7.2/../../../../arm-none-eabi/lib/thumb/libc.a(lib_a-svfscanf.o)
sscanf                                            /opt/local/lib/gcc/arm-none-eabi/4.7.2/../../../../arm-none-eabi/lib/thumb/libc.a(lib_a-sscanf.o)
                                                  Ap_StrCmd.o
strcmp                                            /opt/local/lib/gcc/arm-none-eabi/4.7.2/../../../../arm-none-eabi/lib/thumb/libc.a(lib_a-strcmp.o)
                                                  /opt/local/lib/gcc/arm-none-eabi/4.7.2/../../../../arm-none-eabi/lib/thumb/libc.a(lib_a-locale.o)
strlen                                            /opt/local/lib/gcc/arm-none-eabi/4.7.2/../../../../arm-none-eabi/lib/thumb/libc.a(lib_a-strlen.o)
                                                  /opt/local/lib/gcc/arm-none-eabi/4.7.2/../../../../arm-none-eabi/lib/thumb/libc.a(lib_a-svfiprintf.o)
                                                  /opt/local/lib/gcc/arm-none-eabi/4.7.2/../../../../arm-none-eabi/lib/thumb/libc.a(lib_a-gdtoa-gethex.o)
                                                  /opt/local/lib/gcc/arm-none-eabi/4.7.2/../../../../arm-none-eabi/lib/thumb/libc.a(lib_a-syscalls.o)
                                                  /opt/local/lib/gcc/arm-none-eabi/4.7.2/../../../../arm-none-eabi/lib/thumb/libc.a(lib_a-svfprintf.o)
                                                  /opt/local/lib/gcc/arm-none-eabi/4.7.2/../../../../arm-none-eabi/lib/thumb/libc.a(lib_a-strtod.o)
                                                  /opt/local/lib/gcc/arm-none-eabi/4.7.2/../../../../arm-none-eabi/lib/thumb/libc.a(lib_a-sscanf.o)
                                                  Ap_StrCmd.o
strncmp                                           /opt/local/lib/gcc/arm-none-eabi/4.7.2/../../../../arm-none-eabi/lib/thumb/libc.a(lib_a-strncmp.o)
                                                  /opt/local/lib/gcc/arm-none-eabi/4.7.2/../../../../arm-none-eabi/lib/thumb/libc.a(lib_a-gdtoa-gethex.o)
                                                  /opt/local/lib/gcc/arm-none-eabi/4.7.2/../../../../arm-none-eabi/lib/thumb/libc.a(lib_a-strtod.o)
                                                  Ap_StrCmd.o
strtod                                            /opt/local/lib/gcc/arm-none-eabi/4.7.2/../../../../arm-none-eabi/lib/thumb/libc.a(lib_a-strtod.o)
strtof                                            /opt/local/lib/gcc/arm-none-eabi/4.7.2/../../../../arm-none-eabi/lib/thumb/libc.a(lib_a-strtod.o)
strtol                                            /opt/local/lib/gcc/arm-none-eabi/4.7.2/../../../../arm-none-eabi/lib/thumb/libc.a(lib_a-strtol.o)
strtoul                                           /opt/local/lib/gcc/arm-none-eabi/4.7.2/../../../../arm-none-eabi/lib/thumb/libc.a(lib_a-strtoul.o)
ungetc                                            /opt/local/lib/gcc/arm-none-eabi/4.7.2/../../../../arm-none-eabi/lib/thumb/libc.a(lib_a-ungetc.o)
wCNTR                                             usb_istr.o
wInterrupt_Mask                                   usb_sil.o
                                                  usb_init.o
                                                  usb_pwr.o
                                                  usb_istr.o
wIstr                                             usb_int.o
                                                  usb_istr.o
